(dp0
S'242279'
p1
VSauce:\u000a2 (15 ounce) cans tomato sauce\u000a1 cup water\u000a1/2 cup chipotle peppers in adobo sauce\u000a3 tablespoons chili powder\u000a1 teaspoon dried oregano\u000a1 teaspoon sea salt\u000aWraps:\u000a2 tablespoons extra-virgin olive oil\u000a2 small onions, finely chopped\u000a2 green bell peppers, finely chopped\u000a1 pinch salt\u000a1 1/2 pounds ground beef\u000a4 cloves garlic, minced\u000a2 (15 ounce) cans kidney beans, rinsed and drained\u000a1 (15 ounce) can black beans, rinsed and drained\u000a16 romaine lettuce leaves\u000aAdd all ingredients to list\u000aAdd all ingredients to list\u000aBlend tomato sauce, water, chipotle peppers in adobo sauce, chili powder, oregano, and 1 teaspoon sea salt together in a blender until sauce is smooth.\u000aHeat olive oil in a large Dutch oven or heavy pot over medium heat; cook and stir onions, green bell peppers, and a pinch salt until softened, 5 to 10 minutes. Add ground beef and increase heat to medium-high; cook and stir until beef is browned and crumbly, 5 to 10 minutes. Drain excess grease.\u000aMix garlic and sauce into ground beef mixture; cook and stir until heated through, 2 to 3 minutes. Stir kidney beans and black beans into into ground beef sauce and simmer, stirring occasionally, until filling flavors have blended, about 20 minutes.\u000aSpoon filling into lettuce leaves.\u000a
p2
sS'141370'
p3
V4 cups strawberries, sliced\u000a1 cup white sugar\u000a8 cups cold water\u000a1 lime, cut into 8 wedges (optional)\u000a8 fresh mint sprigs (optional)\u000aAdd all ingredients to list\u000aAdd all ingredients to list\u000aIn a medium bowl, mix together sliced strawberries, sugar, and 1 cup of water. Cover the bowl with plastic wrap and place in the refrigerator for 4 hours.\u000aRemove the strawberry mixture from the refrigerator and pour into a blender. Blend on high until smooth. Pour the blended berry mixture through a wire mesh strainer set over a large mixing bowl; discard the pulp and seeds.\u000aAdd the remaining 7 cups cold water to the pureed strawberries and mix well. Place the Aqua de Fresa in the refrigerator to chill for several hours or pour over ice and serve immediately. Garnish with lime slices or mint leaves.\u000a
p4
s.