(dp0
I8418
V3 eggs\u000a2 cups white sugar\u000a1 cup vegetable oil\u000a2 cups all-purpose flour\u000a2 teaspoons ground cinnamon\u000a1 teaspoon baking soda\u000a1/2 teaspoon salt\u000a1 teaspoon vanilla extract\u000a1 cup chopped walnuts\u000a4 cups thinly sliced apples\u000a2 (3 ounce) packages cream cheese, softened\u000a1/4 cup butter, melted\u000a2 cups confectioners' sugar\u000a1 teaspoon lemon juice\u000aAdd all ingredients to list\u000aAdd all ingredients to list\u000aPreheat oven to 350 degrees. Butter a 9x13 inch pan. Spread apples evenly over the bottom of the pan.\u000aBeat eggs with mixer until thick and light. Combine sugar and oil and add to eggs.\u000aStir together flour, cinnamon, soda and salt. Add to egg mixture and beat in. stir in nuts and vanilla. Batter will be very thick.\u000aSpread batter over apples in the pan. Bake at 350 degrees F (175 degrees C) for 1 hour, or until a toothpick inserted into the center comes out clean. Remove from the oven and cool. Spread with Cream Cheese Icing.\u000aTo make Cream Cheese Icing: Beat cream cheese until fluffy. Beat in 1/4 cup melted butter, then beat in confectioners sugar and lemon juice. Spread over cooled cake. Refrigerate.\u000a
p1
sI9749
V1/4 cup white sugar\u000a1/2 cup butter, softened\u000a1 egg yolk\u000a1/2 teaspoon almond extract\u000a1 1/4 cups sifted all-purpose flour\u000aAdd all ingredients to list\u000aAdd all ingredients to list\u000aPreheat oven to 375 degrees F (190 degrees C). Grease cookie sheets.\u000aCream the sugar and butter until light and fluffy. Stir in the egg yolk and vanilla. Mix in flour just until incorporated. Knead dough lightly on a board. Place in a pastry bag using the star design. Cut off desired lengths and shape into rings or S's.\u000aBake 10 to 12 minutes in the preheated oven, or until edges are golden.\u000a
p2
s.