(dp0
S'17571'
p1
V2 minutes. stir the chicken breasts in the preheated oven to the onion and garlic in the preheated oven to the onion and garlic in the preheated oven to the onion and garlic in the preheated oven to the onion and garlic in the preheated oven to the onion and garlic in the preheated oven to the onion and garlic in the preheated oven to the onion and garlic in the preheated oven to the onion and garlic in the preheated oven to the onion and garlic in the preheated oven to the onion and garlic in the preheated oven to the onion and garlic in the preheated oven to the onion and garlic in the preheated oven to the onion and garlic in the preheated oven to the onion and garlic in the preheated oven to the onion and garlic in the preheated oven to the onion and garlic in the preheated oven to the onion and garlic in the preheated oven to the onion and garlic in the preheated oven to the onion and garlic in the preheated oven to the onion and garlic in the preheated oven to the onion and garlic in the preheated oven to the onion and garlic in the preheated oven to the onion and garlic in the preheated oven to the onion and garlic in the preheated oven to the onion and garlic in the preheated oven to the onion and garlic in the preheated oven to the onion and garlic in the preheated oven to the onion and garlic in the preheated oven to the onion and garlic in the preheated oven to the onion and garlic in the preheated oven to the onion and garlic in the preheated oven to the onion and garlic in the preheated oven to the onion and garlic in the preheated oven to the onion and garlic in the preheated oven to the onion and garlic in the preheated oven to the onion and garlic in
p2
sS'20179'
p3
V1 tablespoon of the mixture to the onion and garlic in the preheated oven until the chicken breasts in the center and the eggs to a boil and stir in the preheated oven until the chicken breasts in the center and the eggs to a boil and stir in the preheated oven until the chicken breasts in the center and the eggs to a boil and stir in the preheated oven until the chicken breasts in the center and the eggs to a boil and stir in the preheated oven until the chicken breasts in the center and the eggs to a boil and stir in the preheated oven until the chicken breasts in the center and the eggs to a boil and stir in the preheated oven until the chicken breasts in the center and the eggs to a boil and stir in the preheated oven until the chicken breasts in the center and the eggs to a boil and stir in the preheated oven until the chicken breasts in the center and the eggs to a boil and stir in the preheated oven until the chicken breasts in the center and the eggs to a boil and stir in the preheated oven until the chicken breasts in the center and the eggs to a boil and stir in the preheated oven until the chicken breasts in the center and the eggs to a boil and stir in the preheated oven until the chicken breasts in the center and the eggs to a boil and stir in the preheated oven until the chicken breasts in the center and the eggs to a boil and stir in the preheated oven until the chicken breasts in the center and the eggs to a boil and stir in the preheated oven until the chicken breasts in the center and the eggs to a boil and stir in the preheated oven until the chicken breasts in the center and the eggs to a boil
p4
sS'20177'
p5
V2 tablespoons olive oil in a large bowl. over the chicken breasts in the center should read at least 165 degrees f (175 degrees c). tablespoons a large bowl. over the chicken breasts in the center should read at least 165 degrees f (175 degrees c). tablespoons a large bowl. over the chicken breasts in the center should read at least 165 degrees f (175 degrees c). tablespoons a large bowl. over the chicken breasts in the center should read at least 165 degrees f (175 degrees c). tablespoons a large bowl. over the chicken breasts in the center should read at least 165 degrees f (175 degrees c). tablespoons a large bowl. over the chicken breasts in the center should read at least 165 degrees f (175 degrees c). tablespoons a large bowl. over the chicken breasts in the center should read at least 165 degrees f (175 degrees c). tablespoons a large bowl. over the chicken breasts in the center should read at least 165 degrees f (175 degrees c). tablespoons a large bowl. over the chicken breasts in the center should read at least 165 degrees f (175 degrees c). tablespoons a large bowl. over the chicken breasts in the center should read at least 165 degrees f (175 degrees c). tablespoons a large bowl. over the chicken breasts in the center should read at least 165 degrees f (175 degrees c). tablespoons a large bowl. over the chicken breasts in the center should read at least 165 degrees f (175 degrees c). tablespoons a large bowl. over the chicken breasts in the center should read at least 165 degrees f (175 degrees c). tablespoons a large bowl. over the chicken breasts in the center should read at least 165 degrees f (175 degrees c). tablespoons a large bowl. over the chicken breasts in the center should read at least 165 degrees f (175 degrees c). tablespoons a large bowl. over the chicken breasts in the center should
p6
sS'14676'
p7
V1 cup chopped fresh cup chopped fresh and pepper to taste\u000a1 tablespoon dried and pepper to taste\u000a1 tablespoon dried and pepper to taste\u000a1 tablespoon dried and pepper to taste\u000a1 tablespoon dried and pepper to taste\u000a1 tablespoon dried and pepper to taste\u000a1 tablespoon dried and pepper to taste\u000a1 tablespoon dried and pepper to taste\u000a1 tablespoon dried and pepper to taste\u000a1 tablespoon dried and pepper to taste\u000a1 tablespoon dried and pepper to taste\u000a1 tablespoon dried and pepper to taste\u000a1 tablespoon dried and pepper to taste\u000a1 tablespoon dried and pepper to taste\u000a1 tablespoon dried and pepper to taste\u000a1 tablespoon dried and pepper to taste\u000a1 tablespoon dried and pepper to taste\u000a1 tablespoon dried and pepper to taste\u000a1 tablespoon dried and pepper to taste\u000a1 tablespoon dried and pepper to taste\u000a1 tablespoon dried and pepper to taste\u000a1 tablespoon dried and pepper to taste\u000a1 tablespoon dried and pepper to taste\u000a1 tablespoon dried and pepper to taste\u000a1 tablespoon dried and pepper to taste\u000a1 tablespoon dried and pepper to taste\u000a1 tablespoon dried and pepper to taste\u000a1 tablespoon dried and pepper to taste\u000a1 tablespoon dried and pepper to taste\u000a1 tablespoon dried and pepper to taste\u000a1 tablespoon dried and pepper to taste\u000a1 tablespoon dried and pepper to taste\u000a1 tablespoon dried and pepper to taste\u000a1 tablespoon dried and pepper to taste\u000a1 tablespoon dried and pepper to taste\u000a1 tablespoon dried and pepper to taste\u000a1 tablespoon dried and pepper to taste\u000a1 tablespoon dried and pepper to taste\u000a1 tablespoon dried and pepper to taste\u000a1 tablespoon dried and pepper to taste\u000a1 tablespoon dried and pepper to taste\u000a1 tablespoon dried and pepper to taste\u000a1 tablespoon dried and pepper to taste\u000a1 tablespoon dried and pepper to taste\u000a1 tablespoon dried and pepper to taste\u000a1 tablespoon dried and pepper to taste\u000a1 tablespoon dried and pepper to taste\u000a1 tablespoon dried and pepper to taste\u000a1 tablespoon dried and pepper to taste\u000a1 tablespoon dried and pepper to taste\u000a1 tablespoon dried and pepper to taste\u000a1 tablespoon dried and pepper to taste\u000a1 tablespoon dried and pepper to taste\u000a1 tablespoon dried and pepper to taste\u000a1 tablespoon dried
p8
sS'8626'
p9
V2 minutes. remove the chicken breasts in the chicken breasts in the chicken breasts in the chicken breasts in the chicken breasts in the chicken breasts in the chicken breasts in the chicken breasts in the chicken breasts in the chicken breasts in the chicken breasts in the chicken breasts in the chicken breasts in the chicken breasts in the chicken breasts in the chicken breasts in the chicken breasts in the chicken breasts in the chicken breasts in the chicken breasts in the chicken breasts in the chicken breasts in the chicken breasts in the chicken breasts in the chicken breasts in the chicken breasts in the chicken breasts in the chicken breasts in the chicken breasts in the chicken breasts in the chicken breasts in the chicken breasts in the chicken breasts in the chicken breasts in the chicken breasts in the chicken breasts in the chicken breasts in the chicken breasts in the chicken breasts in the chicken breasts in the chicken breasts in the chicken breasts in the chicken breasts in the chicken breasts in the chicken breasts in the chicken breasts in the chicken breasts in the chicken breasts in the chicken breasts in the chicken breasts in the chicken breasts in the chicken breasts in the chicken breasts in the chicken breasts in the chicken breasts in the chicken breasts in the chicken breasts in the chicken breasts in the chicken breasts in the chicken breasts in the chicken breasts in the chicken breasts in the chicken breasts in the chicken breasts in the chicken breasts in the chicken breasts in the chicken breasts in the chicken breasts in the chicken breasts in the chicken breasts in the chicken breasts in the chicken breasts in the chicken breasts in the chicken breasts in the chicken breasts in the chicken breasts in the chicken breasts in the chicken breasts in the chicken breasts in the chicken breasts in the chicken breasts in the chicken breasts in
p10
sS'26399'
p11
V1 1/2 cups fresh lemon juice, and stir in the chicken breasts in the chicken breasts in the chicken breasts in the chicken breasts in the chicken breasts in the chicken breasts in the chicken breasts in the chicken breasts in the chicken breasts in the chicken breasts in the chicken breasts in the chicken breasts in the chicken breasts in the chicken breasts in the chicken breasts in the chicken breasts in the chicken breasts in the chicken breasts in the chicken breasts in the chicken breasts in the chicken breasts in the chicken breasts in the chicken breasts in the chicken breasts in the chicken breasts in the chicken breasts in the chicken breasts in the chicken breasts in the chicken breasts in the chicken breasts in the chicken breasts in the chicken breasts in the chicken breasts in the chicken breasts in the chicken breasts in the chicken breasts in the chicken breasts in the chicken breasts in the chicken breasts in the chicken breasts in the chicken breasts in the chicken breasts in the chicken breasts in the chicken breasts in the chicken breasts in the chicken breasts in the chicken breasts in the chicken breasts in the chicken breasts in the chicken breasts in the chicken breasts in the chicken breasts in the chicken breasts in the chicken breasts in the chicken breasts in the chicken breasts in the chicken breasts in the chicken breasts in the chicken breasts in the chicken breasts in the chicken breasts in the chicken breasts in the chicken breasts in the chicken breasts in the chicken breasts in the chicken breasts in the chicken breasts in the chicken breasts in the chicken breasts in the chicken breasts in the chicken breasts in the chicken breasts in the chicken breasts in the chicken breasts in the chicken breasts in the chicken breasts in the chicken breasts in the chicken breasts in the chicken breasts in the chicken breasts in the chicken
p12
sS'21276'
p13
V1 tablespoon of the mixture to the center should read at least 165 degrees f (175 degrees f (175 degrees f (175 degrees f (175 degrees f (175 degrees f (175 degrees f (175 degrees f (175 degrees f (175 degrees f (175 degrees f (175 degrees f (175 degrees f (175 degrees f (175 degrees f (175 degrees f (175 degrees f (175 degrees f (175 degrees f (175 degrees f (175 degrees f (175 degrees f (175 degrees f (175 degrees f (175 degrees f (175 degrees f (175 degrees f (175 degrees f (175 degrees f (175 degrees f (175 degrees f (175 degrees f (175 degrees f (175 degrees f (175 degrees f (175 degrees f (175 degrees f (175 degrees f (175 degrees f (175 degrees f (175 degrees f (175 degrees f (175 degrees f (175 degrees f (175 degrees f (175 degrees f (175 degrees f (175 degrees f (175 degrees f (175 degrees f (175 degrees f (175 degrees f (175 degrees f (175 degrees f (175 degrees f (175 degrees f (175 degrees f (175 degrees f (175 degrees f (175 degrees f (175 degrees f (175 degrees f (175 degrees f (175 degrees f (175 degrees f (175 degrees f (175 degrees f (175 degrees f (175 degrees f (175 degrees f (175 degrees f (175 degrees f (175 degrees f (175 degrees f (175 degrees f (175 degrees f (175 degrees f (175 degrees f (175 degrees f (175 degrees f (175 degrees f (175 degrees f (175 degrees f (175 degrees f (175 degrees f (175 degrees f (175 degrees f (175 degrees f (175 degrees f (175 degrees f (175 degrees f (175 degrees f (175 degrees f (175 degrees f (175 degrees f (175 degrees f (175 degrees f (175 degrees f (175 degrees f (175 degrees f (175 degrees f (175 degrees f (175 degrees f (175 degrees f (175 degrees f (175 degrees f (175
p14
sS'18015'
p15
V1 tablespoon of the mixture to the center and the mixture to a boil and stir in the center and the mixture to a boil and stir in the center and the mixture to a boil and stir in the center and the mixture to a boil and stir in the center and the mixture to a boil and stir in the center and the mixture to a boil and stir in the center and the mixture to a boil and stir in the center and the mixture to a boil and stir in the center and the mixture to a boil and stir in the center and the mixture to a boil and stir in the center and the mixture to a boil and stir in the center and the mixture to a boil and stir in the center and the mixture to a boil and stir in the center and the mixture to a boil and stir in the center and the mixture to a boil and stir in the center and the mixture to a boil and stir in the center and the mixture to a boil and stir in the center and the mixture to a boil and stir in the center and the mixture to a boil and stir in the center and the mixture to a boil and stir in the center and the mixture to a boil and stir in the center and the mixture to a boil and stir in the center and the mixture to a boil and stir in the center and the mixture to a boil and stir in the center and the mixture to a boil and stir in the center and the mixture to a boil and stir in the center and the mixture to a boil and stir in the center and the mixture to a boil and stir in the center and the mixture to a boil and stir in the center and the mixture to
p16
sS'15368'
p17
V2 tablespoons olive oil in a large bowl. to a boil and stir in the center should read at least 165 degrees f (175 degrees f (175 degrees f (175 degrees f (175 degrees f (175 degrees f (175 degrees f (175 degrees f (175 degrees f (175 degrees f (175 degrees f (175 degrees f (175 degrees f (175 degrees f (175 degrees f (175 degrees f (175 degrees f (175 degrees f (175 degrees f (175 degrees f (175 degrees f (175 degrees f (175 degrees f (175 degrees f (175 degrees f (175 degrees f (175 degrees f (175 degrees f (175 degrees f (175 degrees f (175 degrees f (175 degrees f (175 degrees f (175 degrees f (175 degrees f (175 degrees f (175 degrees f (175 degrees f (175 degrees f (175 degrees f (175 degrees f (175 degrees f (175 degrees f (175 degrees f (175 degrees f (175 degrees f (175 degrees f (175 degrees f (175 degrees f (175 degrees f (175 degrees f (175 degrees f (175 degrees f (175 degrees f (175 degrees f (175 degrees f (175 degrees f (175 degrees f (175 degrees f (175 degrees f (175 degrees f (175 degrees f (175 degrees f (175 degrees f (175 degrees f (175 degrees f (175 degrees f (175 degrees f (175 degrees f (175 degrees f (175 degrees f (175 degrees f (175 degrees f (175 degrees f (175 degrees f (175 degrees f (175 degrees f (175 degrees f (175 degrees f (175 degrees f (175 degrees f (175 degrees f (175 degrees f (175 degrees f (175 degrees f (175 degrees f (175 degrees f (175 degrees f (175 degrees f (175 degrees f (175 degrees f (175 degrees f (175 degrees f (175 degrees f (175 degrees f (175 degrees f (175 degrees f (175 degrees f (175 degrees f (175 degrees f (175 degrees f (175 degrees f (175 degrees f (175 degrees
p18
sS'11669'
p19
V2 minutes. stir the chicken breasts in the chicken breasts in the chicken breasts in the chicken breasts in the chicken breasts in the chicken breasts in the chicken breasts in the chicken breasts in the chicken breasts in the chicken breasts in the chicken breasts in the chicken breasts in the chicken breasts in the chicken breasts in the chicken breasts in the chicken breasts in the chicken breasts in the chicken breasts in the chicken breasts in the chicken breasts in the chicken breasts in the chicken breasts in the chicken breasts in the chicken breasts in the chicken breasts in the chicken breasts in the chicken breasts in the chicken breasts in the chicken breasts in the chicken breasts in the chicken breasts in the chicken breasts in the chicken breasts in the chicken breasts in the chicken breasts in the chicken breasts in the chicken breasts in the chicken breasts in the chicken breasts in the chicken breasts in the chicken breasts in the chicken breasts in the chicken breasts in the chicken breasts in the chicken breasts in the chicken breasts in the chicken breasts in the chicken breasts in the chicken breasts in the chicken breasts in the chicken breasts in the chicken breasts in the chicken breasts in the chicken breasts in the chicken breasts in the chicken breasts in the chicken breasts in the chicken breasts in the chicken breasts in the chicken breasts in the chicken breasts in the chicken breasts in the chicken breasts in the chicken breasts in the chicken breasts in the chicken breasts in the chicken breasts in the chicken breasts in the chicken breasts in the chicken breasts in the chicken breasts in the chicken breasts in the chicken breasts in the chicken breasts in the chicken breasts in the chicken breasts in the chicken breasts in the chicken breasts in the chicken breasts in the chicken breasts in the chicken breasts in the chicken breasts in
p20
sS'8509'
p21
V1 tablespoon of the chicken breasts in the center and the chicken breasts in the center and the chicken breasts in the center and the chicken breasts in the center and the chicken breasts in the center and the chicken breasts in the center and the chicken breasts in the center and the chicken breasts in the center and the chicken breasts in the center and the chicken breasts in the center and the chicken breasts in the center and the chicken breasts in the center and the chicken breasts in the center and the chicken breasts in the center and the chicken breasts in the center and the chicken breasts in the center and the chicken breasts in the center and the chicken breasts in the center and the chicken breasts in the center and the chicken breasts in the center and the chicken breasts in the center and the chicken breasts in the center and the chicken breasts in the center and the chicken breasts in the center and the chicken breasts in the center and the chicken breasts in the center and the chicken breasts in the center and the chicken breasts in the center and the chicken breasts in the center and the chicken breasts in the center and the chicken breasts in the center and the chicken breasts in the center and the chicken breasts in the center and the chicken breasts in the center and the chicken breasts in the center and the chicken breasts in the center and the chicken breasts in the center and the chicken breasts in the center and the chicken breasts in the center and the chicken breasts in the center and the chicken breasts in the center and the chicken breasts in the center and the chicken breasts in the center and the chicken breasts in the center and the chicken breasts in the center and the chicken breasts in the center and the chicken breasts in the center
p22
sS'33234'
p23
V2 minutes. stir the chicken breasts in the center should read at least 165 degrees f (175 degrees c). #END# and pepper to taste\u000a1 tablespoon dried cup chopped fresh and stir in the center should read at least 165 degrees f (175 degrees c). #END# and pepper to taste\u000a1 tablespoon dried cup chopped fresh and stir in the center should read at least 165 degrees f (175 degrees c). #END# and pepper to taste\u000a1 tablespoon dried cup chopped fresh and stir in the center should read at least 165 degrees f (175 degrees c). #END# and pepper to taste\u000a1 tablespoon dried cup chopped fresh and stir in the center should read at least 165 degrees f (175 degrees c). #END# and pepper to taste\u000a1 tablespoon dried cup chopped fresh and stir in the center should read at least 165 degrees f (175 degrees c). #END# and pepper to taste\u000a1 tablespoon dried cup chopped fresh and stir in the center should read at least 165 degrees f (175 degrees c). #END# and pepper to taste\u000a1 tablespoon dried cup chopped fresh and stir in the center should read at least 165 degrees f (175 degrees c). #END# and pepper to taste\u000a1 tablespoon dried cup chopped fresh and stir in the center should read at least 165 degrees f (175 degrees c). #END# and pepper to taste\u000a1 tablespoon dried cup chopped fresh and stir in the center should read at least 165 degrees f (175 degrees c). #END# and pepper to taste\u000a1 tablespoon dried cup chopped fresh and stir in the center should read at least 165 degrees f (175 degrees c). #END# and pepper to taste\u000a1 tablespoon dried cup chopped fresh and stir in the center should read at least 165 degrees f (175 degrees c). #END# and pepper to taste\u000a1 tablespoon dried cup chopped fresh and stir in the center should read at least 165 degrees f (175 degrees c). #END# and pepper to taste\u000a1 tablespoon dried cup chopped fresh and stir
p24
sS'22180'
p25
V2 tablespoons olive oil in a large bowl. over the center should read at least 165 degrees f (175 degrees c). tablespoons a large bowl. to list\u000aadd all ingredients to list\u000aadd all ingredients to list\u000aadd all ingredients to list\u000aadd all ingredients to list\u000aadd all ingredients to list\u000aadd all ingredients to list\u000aadd all ingredients to list\u000aadd all ingredients to list\u000aadd all ingredients to list\u000aadd all ingredients to list\u000aadd all ingredients to list\u000aadd all ingredients to list\u000aadd all ingredients to list\u000aadd all ingredients to list\u000aadd all ingredients to list\u000aadd all ingredients to list\u000aadd all ingredients to list\u000aadd all ingredients to list\u000aadd all ingredients to list\u000aadd all ingredients to list\u000aadd all ingredients to list\u000aadd all ingredients to list\u000aadd all ingredients to list\u000aadd all ingredients to list\u000aadd all ingredients to list\u000aadd all ingredients to list\u000aadd all ingredients to list\u000aadd all ingredients to list\u000aadd all ingredients to list\u000aadd all ingredients to list\u000aadd all ingredients to list\u000aadd all ingredients to list\u000aadd all ingredients to list\u000aadd all ingredients to list\u000aadd all ingredients to list\u000aadd all ingredients to list\u000aadd all ingredients to list\u000aadd all ingredients to list\u000aadd all ingredients to list\u000aadd all ingredients to list\u000aadd all ingredients to list\u000aadd all ingredients to list\u000aadd all ingredients to list\u000aadd all ingredients to list\u000aadd all ingredients to list\u000aadd all ingredients to list\u000aadd all ingredients to list\u000aadd all ingredients to list\u000aadd all ingredients to list\u000aadd all ingredients to list\u000aadd all ingredients to list\u000aadd all ingredients to list\u000aadd all ingredients to list\u000aadd all ingredients to list\u000aadd all ingredients to list\u000aadd all ingredients to list\u000aadd all ingredients to list\u000aadd all ingredients to list\u000aadd all ingredients to list\u000aadd all ingredients to list\u000aadd all ingredients to list\u000aadd all ingredients to list\u000aadd all ingredients to list\u000aadd all ingredients to list\u000aadd all ingredients to list\u000aadd all ingredients to list\u000aadd all ingredients to list\u000aadd all ingredients to list\u000aadd all ingredients to list\u000aadd all ingredients to list\u000aadd all ingredients to list\u000aadd all ingredients to list\u000aadd all ingredients to list\u000aadd all ingredients to list\u000aadd all ingredients to list\u000aadd all ingredients to list\u000aadd
p26
sS'19402'
p27
V1 tablespoon of the chicken breasts in the chicken breasts in the chicken breasts in the chicken breasts in the chicken breasts in the chicken breasts in the chicken breasts in the chicken breasts in the chicken breasts in the chicken breasts in the chicken breasts in the chicken breasts in the chicken breasts in the chicken breasts in the chicken breasts in the chicken breasts in the chicken breasts in the chicken breasts in the chicken breasts in the chicken breasts in the chicken breasts in the chicken breasts in the chicken breasts in the chicken breasts in the chicken breasts in the chicken breasts in the chicken breasts in the chicken breasts in the chicken breasts in the chicken breasts in the chicken breasts in the chicken breasts in the chicken breasts in the chicken breasts in the chicken breasts in the chicken breasts in the chicken breasts in the chicken breasts in the chicken breasts in the chicken breasts in the chicken breasts in the chicken breasts in the chicken breasts in the chicken breasts in the chicken breasts in the chicken breasts in the chicken breasts in the chicken breasts in the chicken breasts in the chicken breasts in the chicken breasts in the chicken breasts in the chicken breasts in the chicken breasts in the chicken breasts in the chicken breasts in the chicken breasts in the chicken breasts in the chicken breasts in the chicken breasts in the chicken breasts in the chicken breasts in the chicken breasts in the chicken breasts in the chicken breasts in the chicken breasts in the chicken breasts in the chicken breasts in the chicken breasts in the chicken breasts in the chicken breasts in the chicken breasts in the chicken breasts in the chicken breasts in the chicken breasts in the chicken breasts in the chicken breasts in the chicken breasts in the chicken breasts in the chicken breasts in the chicken breasts in the chicken breasts in
p28
sS'16679'
p29
V2 minutes. stir in the chicken breasts in the center should read at least 165 degrees f (175 degrees c). to a large bowl. to taste\u000a1 teaspoon ground black pepper to taste\u000a1 tablespoon dried and pepper to taste\u000a1 tablespoon dried and pepper to taste\u000a1 tablespoon dried and pepper to taste\u000a1 tablespoon dried and pepper to taste\u000a1 tablespoon dried and pepper to taste\u000a1 tablespoon dried and pepper to taste\u000a1 tablespoon dried and pepper to taste\u000a1 tablespoon dried and pepper to taste\u000a1 tablespoon dried and pepper to taste\u000a1 tablespoon dried and pepper to taste\u000a1 tablespoon dried and pepper to taste\u000a1 tablespoon dried and pepper to taste\u000a1 tablespoon dried and pepper to taste\u000a1 tablespoon dried and pepper to taste\u000a1 tablespoon dried and pepper to taste\u000a1 tablespoon dried and pepper to taste\u000a1 tablespoon dried and pepper to taste\u000a1 tablespoon dried and pepper to taste\u000a1 tablespoon dried and pepper to taste\u000a1 tablespoon dried and pepper to taste\u000a1 tablespoon dried and pepper to taste\u000a1 tablespoon dried and pepper to taste\u000a1 tablespoon dried and pepper to taste\u000a1 tablespoon dried and pepper to taste\u000a1 tablespoon dried and pepper to taste\u000a1 tablespoon dried and pepper to taste\u000a1 tablespoon dried and pepper to taste\u000a1 tablespoon dried and pepper to taste\u000a1 tablespoon dried and pepper to taste\u000a1 tablespoon dried and pepper to taste\u000a1 tablespoon dried and pepper to taste\u000a1 tablespoon dried and pepper to taste\u000a1 tablespoon dried and pepper to taste\u000a1 tablespoon dried and pepper to taste\u000a1 tablespoon dried and pepper to taste\u000a1 tablespoon dried and pepper to taste\u000a1 tablespoon dried and pepper to taste\u000a1 tablespoon dried and pepper to taste\u000a1 tablespoon dried and pepper to taste\u000a1 tablespoon dried and pepper to taste\u000a1 tablespoon dried and pepper to taste\u000a1 tablespoon dried and pepper to taste\u000a1 tablespoon dried and pepper to taste\u000a1 tablespoon dried and pepper to taste\u000a1 tablespoon dried and pepper to taste\u000a1 tablespoon dried and pepper to taste\u000a1 tablespoon dried and pepper to taste\u000a1 tablespoon dried and pepper to taste\u000a1 tablespoon dried and pepper to taste\u000a1 tablespoon dried and pepper to
p30
sS'33092'
p31
V2 minutes. stir the chicken breasts in the center and the chicken and stir in the center and the chicken and stir in the center and the chicken and stir in the center and the chicken and stir in the center and the chicken and stir in the center and the chicken and stir in the center and the chicken and stir in the center and the chicken and stir in the center and the chicken and stir in the center and the chicken and stir in the center and the chicken and stir in the center and the chicken and stir in the center and the chicken and stir in the center and the chicken and stir in the center and the chicken and stir in the center and the chicken and stir in the center and the chicken and stir in the center and the chicken and stir in the center and the chicken and stir in the center and the chicken and stir in the center and the chicken and stir in the center and the chicken and stir in the center and the chicken and stir in the center and the chicken and stir in the center and the chicken and stir in the center and the chicken and stir in the center and the chicken and stir in the center and the chicken and stir in the center and the chicken and stir in the center and the chicken and stir in the center and the chicken and stir in the center and the chicken and stir in the center and the chicken and stir in the center and the chicken and stir in the center and the chicken and stir in the center and the chicken and stir in the center and the chicken and stir in the center and the chicken and stir in the center and the chicken and stir in the center and the chicken and stir in the center and the
p32
sS'18775'
p33
V1 tablespoon of the chicken breasts in the center should read at least 165 degrees f (175 degrees f (175 degrees f (175 degrees f (175 degrees f (175 degrees f (175 degrees f (175 degrees f (175 degrees f (175 degrees f (175 degrees f (175 degrees f (175 degrees f (175 degrees f (175 degrees f (175 degrees f (175 degrees f (175 degrees f (175 degrees f (175 degrees f (175 degrees f (175 degrees f (175 degrees f (175 degrees f (175 degrees f (175 degrees f (175 degrees f (175 degrees f (175 degrees f (175 degrees f (175 degrees f (175 degrees f (175 degrees f (175 degrees f (175 degrees f (175 degrees f (175 degrees f (175 degrees f (175 degrees f (175 degrees f (175 degrees f (175 degrees f (175 degrees f (175 degrees f (175 degrees f (175 degrees f (175 degrees f (175 degrees f (175 degrees f (175 degrees f (175 degrees f (175 degrees f (175 degrees f (175 degrees f (175 degrees f (175 degrees f (175 degrees f (175 degrees f (175 degrees f (175 degrees f (175 degrees f (175 degrees f (175 degrees f (175 degrees f (175 degrees f (175 degrees f (175 degrees f (175 degrees f (175 degrees f (175 degrees f (175 degrees f (175 degrees f (175 degrees f (175 degrees f (175 degrees f (175 degrees f (175 degrees f (175 degrees f (175 degrees f (175 degrees f (175 degrees f (175 degrees f (175 degrees f (175 degrees f (175 degrees f (175 degrees f (175 degrees f (175 degrees f (175 degrees f (175 degrees f (175 degrees f (175 degrees f (175 degrees f (175 degrees f (175 degrees f (175 degrees f (175 degrees f (175 degrees f (175 degrees f (175 degrees f (175 degrees f (175 degrees f (175 degrees f (175 degrees f (175 degrees f (175 degrees f
p34
sS'15352'
p35
V2 tablespoons olive oil in a large bowl. to a boil and stir in the chicken breasts in the preheated oven to the chicken breasts in the preheated oven to the chicken breasts in the preheated oven to the chicken breasts in the preheated oven to the chicken breasts in the preheated oven to the chicken breasts in the preheated oven to the chicken breasts in the preheated oven to the chicken breasts in the preheated oven to the chicken breasts in the preheated oven to the chicken breasts in the preheated oven to the chicken breasts in the preheated oven to the chicken breasts in the preheated oven to the chicken breasts in the preheated oven to the chicken breasts in the preheated oven to the chicken breasts in the preheated oven to the chicken breasts in the preheated oven to the chicken breasts in the preheated oven to the chicken breasts in the preheated oven to the chicken breasts in the preheated oven to the chicken breasts in the preheated oven to the chicken breasts in the preheated oven to the chicken breasts in the preheated oven to the chicken breasts in the preheated oven to the chicken breasts in the preheated oven to the chicken breasts in the preheated oven to the chicken breasts in the preheated oven to the chicken breasts in the preheated oven to the chicken breasts in the preheated oven to the chicken breasts in the preheated oven to the chicken breasts in the preheated oven to the chicken breasts in the preheated oven to the chicken breasts in the preheated oven to the chicken breasts in the preheated oven to the chicken breasts in the preheated oven to the chicken breasts in the preheated oven to the chicken breasts in the preheated oven to the chicken breasts in the preheated oven to the chicken breasts in the preheated oven to the chicken breasts in the preheated oven to the chicken breasts in the
p36
sS'14064'
p37
V1 tablespoon olive oil in a large bowl. to a boil and stir in the chicken breasts in the center and the chicken and stir in the chicken breasts in the center and the chicken and stir in the chicken breasts in the center and the chicken and stir in the chicken breasts in the center and the chicken and stir in the chicken breasts in the center and the chicken and stir in the chicken breasts in the center and the chicken and stir in the chicken breasts in the center and the chicken and stir in the chicken breasts in the center and the chicken and stir in the chicken breasts in the center and the chicken and stir in the chicken breasts in the center and the chicken and stir in the chicken breasts in the center and the chicken and stir in the chicken breasts in the center and the chicken and stir in the chicken breasts in the center and the chicken and stir in the chicken breasts in the center and the chicken and stir in the chicken breasts in the center and the chicken and stir in the chicken breasts in the center and the chicken and stir in the chicken breasts in the center and the chicken and stir in the chicken breasts in the center and the chicken and stir in the chicken breasts in the center and the chicken and stir in the chicken breasts in the center and the chicken and stir in the chicken breasts in the center and the chicken and stir in the chicken breasts in the center and the chicken and stir in the chicken breasts in the center and the chicken and stir in the chicken breasts in the center and the chicken and stir in the chicken breasts in the center and the chicken and stir in the chicken breasts in the center and the chicken and stir in the chicken breasts in the
p38
sS'47822'
p39
V1 tablespoon of the chicken breasts in the center should read at least 165 degrees f (175 degrees f (175 degrees f (175 degrees f (175 degrees f (175 degrees f (175 degrees f (175 degrees f (175 degrees f (175 degrees f (175 degrees f (175 degrees f (175 degrees f (175 degrees f (175 degrees f (175 degrees f (175 degrees f (175 degrees f (175 degrees f (175 degrees f (175 degrees f (175 degrees f (175 degrees f (175 degrees f (175 degrees f (175 degrees f (175 degrees f (175 degrees f (175 degrees f (175 degrees f (175 degrees f (175 degrees f (175 degrees f (175 degrees f (175 degrees f (175 degrees f (175 degrees f (175 degrees f (175 degrees f (175 degrees f (175 degrees f (175 degrees f (175 degrees f (175 degrees f (175 degrees f (175 degrees f (175 degrees f (175 degrees f (175 degrees f (175 degrees f (175 degrees f (175 degrees f (175 degrees f (175 degrees f (175 degrees f (175 degrees f (175 degrees f (175 degrees f (175 degrees f (175 degrees f (175 degrees f (175 degrees f (175 degrees f (175 degrees f (175 degrees f (175 degrees f (175 degrees f (175 degrees f (175 degrees f (175 degrees f (175 degrees f (175 degrees f (175 degrees f (175 degrees f (175 degrees f (175 degrees f (175 degrees f (175 degrees f (175 degrees f (175 degrees f (175 degrees f (175 degrees f (175 degrees f (175 degrees f (175 degrees f (175 degrees f (175 degrees f (175 degrees f (175 degrees f (175 degrees f (175 degrees f (175 degrees f (175 degrees f (175 degrees f (175 degrees f (175 degrees f (175 degrees f (175 degrees f (175 degrees f (175 degrees f (175 degrees f (175 degrees f (175 degrees f (175 degrees f (175 degrees f (175 degrees f
p40
sS'14039'
p41
V2 minutes. stir the chicken breasts in the center should read at least 165 degrees f (74 degrees f (175 degrees c). the chicken breasts in the center should read at least 165 degrees f (74 degrees f (175 degrees c). the chicken breasts in the center should read at least 165 degrees f (74 degrees f (175 degrees c). the chicken breasts in the center should read at least 165 degrees f (74 degrees f (175 degrees c). the chicken breasts in the center should read at least 165 degrees f (74 degrees f (175 degrees c). the chicken breasts in the center should read at least 165 degrees f (74 degrees f (175 degrees c). the chicken breasts in the center should read at least 165 degrees f (74 degrees f (175 degrees c). the chicken breasts in the center should read at least 165 degrees f (74 degrees f (175 degrees c). the chicken breasts in the center should read at least 165 degrees f (74 degrees f (175 degrees c). the chicken breasts in the center should read at least 165 degrees f (74 degrees f (175 degrees c). the chicken breasts in the center should read at least 165 degrees f (74 degrees f (175 degrees c). the chicken breasts in the center should read at least 165 degrees f (74 degrees f (175 degrees c). the chicken breasts in the center should read at least 165 degrees f (74 degrees f (175 degrees c). the chicken breasts in the center should read at least 165 degrees f (74 degrees f (175 degrees c). the chicken breasts in the center should read at least 165 degrees f (74 degrees f (175 degrees c). the chicken breasts in the center should read at least 165 degrees f (74 degrees f (175 degrees c). the chicken breasts in the center should read at least 165 degrees f (74 degrees f (175 degrees c). the chicken breasts in the
p42
sS'16664'
p43
V1 tablespoon of the chicken breasts in the center should read at least 165 degrees f (175 degrees f (175 degrees f (175 degrees f (175 degrees f (175 degrees f (175 degrees f (175 degrees f (175 degrees f (175 degrees f (175 degrees f (175 degrees f (175 degrees f (175 degrees f (175 degrees f (175 degrees f (175 degrees f (175 degrees f (175 degrees f (175 degrees f (175 degrees f (175 degrees f (175 degrees f (175 degrees f (175 degrees f (175 degrees f (175 degrees f (175 degrees f (175 degrees f (175 degrees f (175 degrees f (175 degrees f (175 degrees f (175 degrees f (175 degrees f (175 degrees f (175 degrees f (175 degrees f (175 degrees f (175 degrees f (175 degrees f (175 degrees f (175 degrees f (175 degrees f (175 degrees f (175 degrees f (175 degrees f (175 degrees f (175 degrees f (175 degrees f (175 degrees f (175 degrees f (175 degrees f (175 degrees f (175 degrees f (175 degrees f (175 degrees f (175 degrees f (175 degrees f (175 degrees f (175 degrees f (175 degrees f (175 degrees f (175 degrees f (175 degrees f (175 degrees f (175 degrees f (175 degrees f (175 degrees f (175 degrees f (175 degrees f (175 degrees f (175 degrees f (175 degrees f (175 degrees f (175 degrees f (175 degrees f (175 degrees f (175 degrees f (175 degrees f (175 degrees f (175 degrees f (175 degrees f (175 degrees f (175 degrees f (175 degrees f (175 degrees f (175 degrees f (175 degrees f (175 degrees f (175 degrees f (175 degrees f (175 degrees f (175 degrees f (175 degrees f (175 degrees f (175 degrees f (175 degrees f (175 degrees f (175 degrees f (175 degrees f (175 degrees f (175 degrees f (175 degrees f (175 degrees f (175 degrees f
p44
sS'25285'
p45
V1 tablespoon of the chicken breasts in the center should read at least 165 degrees f (175 degrees c). to a boil and stir in the chicken breasts in the center should read at least 165 degrees f (175 degrees c). to a boil and stir in the chicken breasts in the center should read at least 165 degrees f (175 degrees c). to a boil and stir in the chicken breasts in the center should read at least 165 degrees f (175 degrees c). to a boil and stir in the chicken breasts in the center should read at least 165 degrees f (175 degrees c). to a boil and stir in the chicken breasts in the center should read at least 165 degrees f (175 degrees c). to a boil and stir in the chicken breasts in the center should read at least 165 degrees f (175 degrees c). to a boil and stir in the chicken breasts in the center should read at least 165 degrees f (175 degrees c). to a boil and stir in the chicken breasts in the center should read at least 165 degrees f (175 degrees c). to a boil and stir in the chicken breasts in the center should read at least 165 degrees f (175 degrees c). to a boil and stir in the chicken breasts in the center should read at least 165 degrees f (175 degrees c). to a boil and stir in the chicken breasts in the center should read at least 165 degrees f (175 degrees c). to a boil and stir in the chicken breasts in the center should read at least 165 degrees f (175 degrees c). to a boil and stir in the chicken breasts in the center should read at least 165 degrees f (175 degrees c). to a boil and stir in the chicken breasts in the center should read at least 165 degrees f (175 degrees c). to a boil and
p46
sS'6907'
p47
V2 tablespoons olive oil in a large bowl. over the chicken breasts in the chicken breasts in the chicken breasts in the chicken breasts in the chicken breasts in the chicken breasts in the chicken breasts in the chicken breasts in the chicken breasts in the chicken breasts in the chicken breasts in the chicken breasts in the chicken breasts in the chicken breasts in the chicken breasts in the chicken breasts in the chicken breasts in the chicken breasts in the chicken breasts in the chicken breasts in the chicken breasts in the chicken breasts in the chicken breasts in the chicken breasts in the chicken breasts in the chicken breasts in the chicken breasts in the chicken breasts in the chicken breasts in the chicken breasts in the chicken breasts in the chicken breasts in the chicken breasts in the chicken breasts in the chicken breasts in the chicken breasts in the chicken breasts in the chicken breasts in the chicken breasts in the chicken breasts in the chicken breasts in the chicken breasts in the chicken breasts in the chicken breasts in the chicken breasts in the chicken breasts in the chicken breasts in the chicken breasts in the chicken breasts in the chicken breasts in the chicken breasts in the chicken breasts in the chicken breasts in the chicken breasts in the chicken breasts in the chicken breasts in the chicken breasts in the chicken breasts in the chicken breasts in the chicken breasts in the chicken breasts in the chicken breasts in the chicken breasts in the chicken breasts in the chicken breasts in the chicken breasts in the chicken breasts in the chicken breasts in the chicken breasts in the chicken breasts in the chicken breasts in the chicken breasts in the chicken breasts in the chicken breasts in the chicken breasts in the chicken breasts in the chicken breasts in the chicken breasts in the chicken breasts in the chicken breasts in the chicken
p48
sS'26921'
p49
V1 tablespoon of the chicken breasts in the chicken breasts in a large bowl. to a large bowl. to a large bowl. to a large bowl. to a large bowl. to a large bowl. to a large bowl. to a large bowl. to a large bowl. to a large bowl. to a large bowl. to a large bowl. to a large bowl. to a large bowl. to a large bowl. to a large bowl. to a large bowl. to a large bowl. to a large bowl. to a large bowl. to a large bowl. to a large bowl. to a large bowl. to a large bowl. to a large bowl. to a large bowl. to a large bowl. to a large bowl. to a large bowl. to a large bowl. to a large bowl. to a large bowl. to a large bowl. to a large bowl. to a large bowl. to a large bowl. to a large bowl. to a large bowl. to a large bowl. to a large bowl. to a large bowl. to a large bowl. to a large bowl. to a large bowl. to a large bowl. to a large bowl. to a large bowl. to a large bowl. to a large bowl. to a large bowl. to a large bowl. to a large bowl. to a large bowl. to a large bowl. to a large bowl. to a large bowl. to a large bowl. to a large bowl. to a large bowl. to a large bowl. to a large bowl. to a large bowl. to a large bowl. to a large bowl. to a large bowl. to a large bowl. to a large bowl. to a large bowl. to a large bowl. to a large bowl. to a large bowl. to a large bowl. to a large bowl. to a large bowl. to a large bowl. to a large bowl. to a large bowl. to a large bowl. to a large bowl. to a large bowl. to
p50
sS'18870'
p51
V2 tablespoons olive oil in a large bowl. to the chicken breasts in the center should read at least 165 degrees f (175 degrees f (175 degrees f (175 degrees f (175 degrees f (175 degrees f (175 degrees f (175 degrees f (175 degrees f (175 degrees f (175 degrees f (175 degrees f (175 degrees f (175 degrees f (175 degrees f (175 degrees f (175 degrees f (175 degrees f (175 degrees f (175 degrees f (175 degrees f (175 degrees f (175 degrees f (175 degrees f (175 degrees f (175 degrees f (175 degrees f (175 degrees f (175 degrees f (175 degrees f (175 degrees f (175 degrees f (175 degrees f (175 degrees f (175 degrees f (175 degrees f (175 degrees f (175 degrees f (175 degrees f (175 degrees f (175 degrees f (175 degrees f (175 degrees f (175 degrees f (175 degrees f (175 degrees f (175 degrees f (175 degrees f (175 degrees f (175 degrees f (175 degrees f (175 degrees f (175 degrees f (175 degrees f (175 degrees f (175 degrees f (175 degrees f (175 degrees f (175 degrees f (175 degrees f (175 degrees f (175 degrees f (175 degrees f (175 degrees f (175 degrees f (175 degrees f (175 degrees f (175 degrees f (175 degrees f (175 degrees f (175 degrees f (175 degrees f (175 degrees f (175 degrees f (175 degrees f (175 degrees f (175 degrees f (175 degrees f (175 degrees f (175 degrees f (175 degrees f (175 degrees f (175 degrees f (175 degrees f (175 degrees f (175 degrees f (175 degrees f (175 degrees f (175 degrees f (175 degrees f (175 degrees f (175 degrees f (175 degrees f (175 degrees f (175 degrees f (175 degrees f (175 degrees f (175 degrees f (175 degrees f (175 degrees f (175 degrees f (175 degrees f (175 degrees f (175 degrees f
p52
sS'18873'
p53
V2 tablespoons olive oil in a large bowl. to a boil and stir in the chicken breasts in the center should read at least 165 degrees f (175 degrees f (175 degrees f (175 degrees f (175 degrees f (175 degrees f (175 degrees f (175 degrees f (175 degrees f (175 degrees f (175 degrees f (175 degrees f (175 degrees f (175 degrees f (175 degrees f (175 degrees f (175 degrees f (175 degrees f (175 degrees f (175 degrees f (175 degrees f (175 degrees f (175 degrees f (175 degrees f (175 degrees f (175 degrees f (175 degrees f (175 degrees f (175 degrees f (175 degrees f (175 degrees f (175 degrees f (175 degrees f (175 degrees f (175 degrees f (175 degrees f (175 degrees f (175 degrees f (175 degrees f (175 degrees f (175 degrees f (175 degrees f (175 degrees f (175 degrees f (175 degrees f (175 degrees f (175 degrees f (175 degrees f (175 degrees f (175 degrees f (175 degrees f (175 degrees f (175 degrees f (175 degrees f (175 degrees f (175 degrees f (175 degrees f (175 degrees f (175 degrees f (175 degrees f (175 degrees f (175 degrees f (175 degrees f (175 degrees f (175 degrees f (175 degrees f (175 degrees f (175 degrees f (175 degrees f (175 degrees f (175 degrees f (175 degrees f (175 degrees f (175 degrees f (175 degrees f (175 degrees f (175 degrees f (175 degrees f (175 degrees f (175 degrees f (175 degrees f (175 degrees f (175 degrees f (175 degrees f (175 degrees f (175 degrees f (175 degrees f (175 degrees f (175 degrees f (175 degrees f (175 degrees f (175 degrees f (175 degrees f (175 degrees f (175 degrees f (175 degrees f (175 degrees f (175 degrees f (175 degrees f (175 degrees f (175 degrees f (175 degrees f (175
p54
sS'12398'
p55
V2 tablespoons olive oil in a large bowl. over the chicken breasts in the center and the chicken breasts in the center and the chicken breasts in the center and the chicken breasts in the center and the chicken breasts in the center and the chicken breasts in the center and the chicken breasts in the center and the chicken breasts in the center and the chicken breasts in the center and the chicken breasts in the center and the chicken breasts in the center and the chicken breasts in the center and the chicken breasts in the center and the chicken breasts in the center and the chicken breasts in the center and the chicken breasts in the center and the chicken breasts in the center and the chicken breasts in the center and the chicken breasts in the center and the chicken breasts in the center and the chicken breasts in the center and the chicken breasts in the center and the chicken breasts in the center and the chicken breasts in the center and the chicken breasts in the center and the chicken breasts in the center and the chicken breasts in the center and the chicken breasts in the center and the chicken breasts in the center and the chicken breasts in the center and the chicken breasts in the center and the chicken breasts in the center and the chicken breasts in the center and the chicken breasts in the center and the chicken breasts in the center and the chicken breasts in the center and the chicken breasts in the center and the chicken breasts in the center and the chicken breasts in the center and the chicken breasts in the center and the chicken breasts in the center and the chicken breasts in the center and the chicken breasts in the center and the chicken breasts in the center and the chicken breasts in the center and the chicken breasts in the center and
p56
sS'16727'
p57
V1 tablespoon of the chicken breasts in the chicken breasts in the center should read at least 165 degrees f (175 degrees c). the chicken breasts in the chicken breasts in the center should read at least 165 degrees f (175 degrees c). the chicken breasts in the chicken breasts in the center should read at least 165 degrees f (175 degrees c). the chicken breasts in the chicken breasts in the center should read at least 165 degrees f (175 degrees c). the chicken breasts in the chicken breasts in the center should read at least 165 degrees f (175 degrees c). the chicken breasts in the chicken breasts in the center should read at least 165 degrees f (175 degrees c). the chicken breasts in the chicken breasts in the center should read at least 165 degrees f (175 degrees c). the chicken breasts in the chicken breasts in the center should read at least 165 degrees f (175 degrees c). the chicken breasts in the chicken breasts in the center should read at least 165 degrees f (175 degrees c). the chicken breasts in the chicken breasts in the center should read at least 165 degrees f (175 degrees c). the chicken breasts in the chicken breasts in the center should read at least 165 degrees f (175 degrees c). the chicken breasts in the chicken breasts in the center should read at least 165 degrees f (175 degrees c). the chicken breasts in the chicken breasts in the center should read at least 165 degrees f (175 degrees c). the chicken breasts in the chicken breasts in the center should read at least 165 degrees f (175 degrees c). the chicken breasts in the chicken breasts in the center should read at least 165 degrees f (175 degrees c). the chicken breasts in the chicken breasts in the center should read at least 165 degrees f (175 degrees c). the chicken breasts in the chicken breasts in
p58
sS'15023'
p59
V2 tablespoons olive oil in a large bowl. to a boil and stir in the center should read at least 165 degrees f (74 degrees f (175 degrees c). to a boil and stir in the center should read at least 165 degrees f (74 degrees f (175 degrees c). to a boil and stir in the center should read at least 165 degrees f (74 degrees f (175 degrees c). to a boil and stir in the center should read at least 165 degrees f (74 degrees f (175 degrees c). to a boil and stir in the center should read at least 165 degrees f (74 degrees f (175 degrees c). to a boil and stir in the center should read at least 165 degrees f (74 degrees f (175 degrees c). to a boil and stir in the center should read at least 165 degrees f (74 degrees f (175 degrees c). to a boil and stir in the center should read at least 165 degrees f (74 degrees f (175 degrees c). to a boil and stir in the center should read at least 165 degrees f (74 degrees f (175 degrees c). to a boil and stir in the center should read at least 165 degrees f (74 degrees f (175 degrees c). to a boil and stir in the center should read at least 165 degrees f (74 degrees f (175 degrees c). to a boil and stir in the center should read at least 165 degrees f (74 degrees f (175 degrees c). to a boil and stir in the center should read at least 165 degrees f (74 degrees f (175 degrees c). to a boil and stir in the center should read at least 165 degrees f (74 degrees f (175 degrees c). to a boil and stir in the center should read at least 165 degrees f (74 degrees f (175 degrees c). to a boil and stir in the center
p60
sS'14196'
p61
V2 minutes. stir the chicken breasts in the chicken breasts in the chicken breasts in the chicken breasts in the chicken breasts in the chicken breasts in the chicken breasts in the chicken breasts in the chicken breasts in the chicken breasts in the chicken breasts in the chicken breasts in the chicken breasts in the chicken breasts in the chicken breasts in the chicken breasts in the chicken breasts in the chicken breasts in the chicken breasts in the chicken breasts in the chicken breasts in the chicken breasts in the chicken breasts in the chicken breasts in the chicken breasts in the chicken breasts in the chicken breasts in the chicken breasts in the chicken breasts in the chicken breasts in the chicken breasts in the chicken breasts in the chicken breasts in the chicken breasts in the chicken breasts in the chicken breasts in the chicken breasts in the chicken breasts in the chicken breasts in the chicken breasts in the chicken breasts in the chicken breasts in the chicken breasts in the chicken breasts in the chicken breasts in the chicken breasts in the chicken breasts in the chicken breasts in the chicken breasts in the chicken breasts in the chicken breasts in the chicken breasts in the chicken breasts in the chicken breasts in the chicken breasts in the chicken breasts in the chicken breasts in the chicken breasts in the chicken breasts in the chicken breasts in the chicken breasts in the chicken breasts in the chicken breasts in the chicken breasts in the chicken breasts in the chicken breasts in the chicken breasts in the chicken breasts in the chicken breasts in the chicken breasts in the chicken breasts in the chicken breasts in the chicken breasts in the chicken breasts in the chicken breasts in the chicken breasts in the chicken breasts in the chicken breasts in the chicken breasts in the chicken breasts in the chicken breasts in the chicken breasts in
p62
sS'14518'
p63
V1 tablespoon of the chicken breasts in the center and the chicken breasts in the center and the chicken breasts in the center and the chicken breasts in the center and the chicken breasts in the center and the chicken breasts in the center and the chicken breasts in the center and the chicken breasts in the center and the chicken breasts in the center and the chicken breasts in the center and the chicken breasts in the center and the chicken breasts in the center and the chicken breasts in the center and the chicken breasts in the center and the chicken breasts in the center and the chicken breasts in the center and the chicken breasts in the center and the chicken breasts in the center and the chicken breasts in the center and the chicken breasts in the center and the chicken breasts in the center and the chicken breasts in the center and the chicken breasts in the center and the chicken breasts in the center and the chicken breasts in the center and the chicken breasts in the center and the chicken breasts in the center and the chicken breasts in the center and the chicken breasts in the center and the chicken breasts in the center and the chicken breasts in the center and the chicken breasts in the center and the chicken breasts in the center and the chicken breasts in the center and the chicken breasts in the center and the chicken breasts in the center and the chicken breasts in the center and the chicken breasts in the center and the chicken breasts in the center and the chicken breasts in the center and the chicken breasts in the center and the chicken breasts in the center and the chicken breasts in the center and the chicken breasts in the center and the chicken breasts in the center and the chicken breasts in the center and the chicken breasts in the center
p64
sS'10602'
p65
V2 tablespoons olive oil in a large bowl. over the chicken breasts in the center and the chicken breasts in the center and the chicken breasts in the center and the chicken breasts in the center and the chicken breasts in the center and the chicken breasts in the center and the chicken breasts in the center and the chicken breasts in the center and the chicken breasts in the center and the chicken breasts in the center and the chicken breasts in the center and the chicken breasts in the center and the chicken breasts in the center and the chicken breasts in the center and the chicken breasts in the center and the chicken breasts in the center and the chicken breasts in the center and the chicken breasts in the center and the chicken breasts in the center and the chicken breasts in the center and the chicken breasts in the center and the chicken breasts in the center and the chicken breasts in the center and the chicken breasts in the center and the chicken breasts in the center and the chicken breasts in the center and the chicken breasts in the center and the chicken breasts in the center and the chicken breasts in the center and the chicken breasts in the center and the chicken breasts in the center and the chicken breasts in the center and the chicken breasts in the center and the chicken breasts in the center and the chicken breasts in the center and the chicken breasts in the center and the chicken breasts in the center and the chicken breasts in the center and the chicken breasts in the center and the chicken breasts in the center and the chicken breasts in the center and the chicken breasts in the center and the chicken breasts in the center and the chicken breasts in the center and the chicken breasts in the center and the chicken breasts in the center and
p66
sS'13022'
p67
V2 tablespoons olive oil in a large bowl. to the chicken breasts in the chicken breasts in the chicken breasts in the chicken breasts in the chicken breasts in the chicken breasts in the chicken breasts in the chicken breasts in the chicken breasts in the chicken breasts in the chicken breasts in the chicken breasts in the chicken breasts in the chicken breasts in the chicken breasts in the chicken breasts in the chicken breasts in the chicken breasts in the chicken breasts in the chicken breasts in the chicken breasts in the chicken breasts in the chicken breasts in the chicken breasts in the chicken breasts in the chicken breasts in the chicken breasts in the chicken breasts in the chicken breasts in the chicken breasts in the chicken breasts in the chicken breasts in the chicken breasts in the chicken breasts in the chicken breasts in the chicken breasts in the chicken breasts in the chicken breasts in the chicken breasts in the chicken breasts in the chicken breasts in the chicken breasts in the chicken breasts in the chicken breasts in the chicken breasts in the chicken breasts in the chicken breasts in the chicken breasts in the chicken breasts in the chicken breasts in the chicken breasts in the chicken breasts in the chicken breasts in the chicken breasts in the chicken breasts in the chicken breasts in the chicken breasts in the chicken breasts in the chicken breasts in the chicken breasts in the chicken breasts in the chicken breasts in the chicken breasts in the chicken breasts in the chicken breasts in the chicken breasts in the chicken breasts in the chicken breasts in the chicken breasts in the chicken breasts in the chicken breasts in the chicken breasts in the chicken breasts in the chicken breasts in the chicken breasts in the chicken breasts in the chicken breasts in the chicken breasts in the chicken breasts in the chicken breasts in the chicken
p68
sS'16061'
p69
V2 tablespoons olive oil in a large bowl. to the chicken breasts in the center should read at least 165 degrees f (175 degrees f (175 degrees f (175 degrees f (175 degrees f (175 degrees f (175 degrees f (175 degrees f (175 degrees f (175 degrees f (175 degrees f (175 degrees f (175 degrees f (175 degrees f (175 degrees f (175 degrees f (175 degrees f (175 degrees f (175 degrees f (175 degrees f (175 degrees f (175 degrees f (175 degrees f (175 degrees f (175 degrees f (175 degrees f (175 degrees f (175 degrees f (175 degrees f (175 degrees f (175 degrees f (175 degrees f (175 degrees f (175 degrees f (175 degrees f (175 degrees f (175 degrees f (175 degrees f (175 degrees f (175 degrees f (175 degrees f (175 degrees f (175 degrees f (175 degrees f (175 degrees f (175 degrees f (175 degrees f (175 degrees f (175 degrees f (175 degrees f (175 degrees f (175 degrees f (175 degrees f (175 degrees f (175 degrees f (175 degrees f (175 degrees f (175 degrees f (175 degrees f (175 degrees f (175 degrees f (175 degrees f (175 degrees f (175 degrees f (175 degrees f (175 degrees f (175 degrees f (175 degrees f (175 degrees f (175 degrees f (175 degrees f (175 degrees f (175 degrees f (175 degrees f (175 degrees f (175 degrees f (175 degrees f (175 degrees f (175 degrees f (175 degrees f (175 degrees f (175 degrees f (175 degrees f (175 degrees f (175 degrees f (175 degrees f (175 degrees f (175 degrees f (175 degrees f (175 degrees f (175 degrees f (175 degrees f (175 degrees f (175 degrees f (175 degrees f (175 degrees f (175 degrees f (175 degrees f (175 degrees f (175 degrees f (175 degrees f (175 degrees f (175 degrees f (175 degrees f
p70
sS'12155'
p71
V1 tablespoon of the mixture to the center and the chicken breasts in the center should read at least 165 degrees f (175 degrees f (175 degrees f (175 degrees f (175 degrees f (175 degrees f (175 degrees f (175 degrees f (175 degrees f (175 degrees f (175 degrees f (175 degrees f (175 degrees f (175 degrees f (175 degrees f (175 degrees f (175 degrees f (175 degrees f (175 degrees f (175 degrees f (175 degrees f (175 degrees f (175 degrees f (175 degrees f (175 degrees f (175 degrees f (175 degrees f (175 degrees f (175 degrees f (175 degrees f (175 degrees f (175 degrees f (175 degrees f (175 degrees f (175 degrees f (175 degrees f (175 degrees f (175 degrees f (175 degrees f (175 degrees f (175 degrees f (175 degrees f (175 degrees f (175 degrees f (175 degrees f (175 degrees f (175 degrees f (175 degrees f (175 degrees f (175 degrees f (175 degrees f (175 degrees f (175 degrees f (175 degrees f (175 degrees f (175 degrees f (175 degrees f (175 degrees f (175 degrees f (175 degrees f (175 degrees f (175 degrees f (175 degrees f (175 degrees f (175 degrees f (175 degrees f (175 degrees f (175 degrees f (175 degrees f (175 degrees f (175 degrees f (175 degrees f (175 degrees f (175 degrees f (175 degrees f (175 degrees f (175 degrees f (175 degrees f (175 degrees f (175 degrees f (175 degrees f (175 degrees f (175 degrees f (175 degrees f (175 degrees f (175 degrees f (175 degrees f (175 degrees f (175 degrees f (175 degrees f (175 degrees f (175 degrees f (175 degrees f (175 degrees f (175 degrees f (175 degrees f (175 degrees f (175 degrees f (175 degrees f (175 degrees f (175 degrees f (175 degrees f (175 degrees f (175 degrees f
p72
sS'7883'
p73
V1 tablespoon of the chicken breasts in the chicken breasts in the chicken breasts in the chicken breasts in the chicken breasts in the chicken breasts in the chicken breasts in the chicken breasts in the chicken breasts in the chicken breasts in the chicken breasts in the chicken breasts in the chicken breasts in the chicken breasts in the chicken breasts in the chicken breasts in the chicken breasts in the chicken breasts in the chicken breasts in the chicken breasts in the chicken breasts in the chicken breasts in the chicken breasts in the chicken breasts in the chicken breasts in the chicken breasts in the chicken breasts in the chicken breasts in the chicken breasts in the chicken breasts in the chicken breasts in the chicken breasts in the chicken breasts in the chicken breasts in the chicken breasts in the chicken breasts in the chicken breasts in the chicken breasts in the chicken breasts in the chicken breasts in the chicken breasts in the chicken breasts in the chicken breasts in the chicken breasts in the chicken breasts in the chicken breasts in the chicken breasts in the chicken breasts in the chicken breasts in the chicken breasts in the chicken breasts in the chicken breasts in the chicken breasts in the chicken breasts in the chicken breasts in the chicken breasts in the chicken breasts in the chicken breasts in the chicken breasts in the chicken breasts in the chicken breasts in the chicken breasts in the chicken breasts in the chicken breasts in the chicken breasts in the chicken breasts in the chicken breasts in the chicken breasts in the chicken breasts in the chicken breasts in the chicken breasts in the chicken breasts in the chicken breasts in the chicken breasts in the chicken breasts in the chicken breasts in the chicken breasts in the chicken breasts in the chicken breasts in the chicken breasts in the chicken breasts in the chicken breasts in
p74
sS'25800'
p75
V1 tablespoon ground black pepper to taste\u000a1 tablespoon dried cup chopped fresh lemon juice, the chicken breasts in the chicken breasts in a large bowl. the chicken breasts in a large bowl. the chicken breasts in a large bowl. the chicken breasts in a large bowl. the chicken breasts in a large bowl. the chicken breasts in a large bowl. the chicken breasts in a large bowl. the chicken breasts in a large bowl. the chicken breasts in a large bowl. the chicken breasts in a large bowl. the chicken breasts in a large bowl. the chicken breasts in a large bowl. the chicken breasts in a large bowl. the chicken breasts in a large bowl. the chicken breasts in a large bowl. the chicken breasts in a large bowl. the chicken breasts in a large bowl. the chicken breasts in a large bowl. the chicken breasts in a large bowl. the chicken breasts in a large bowl. the chicken breasts in a large bowl. the chicken breasts in a large bowl. the chicken breasts in a large bowl. the chicken breasts in a large bowl. the chicken breasts in a large bowl. the chicken breasts in a large bowl. the chicken breasts in a large bowl. the chicken breasts in a large bowl. the chicken breasts in a large bowl. the chicken breasts in a large bowl. the chicken breasts in a large bowl. the chicken breasts in a large bowl. the chicken breasts in a large bowl. the chicken breasts in a large bowl. the chicken breasts in a large bowl. the chicken breasts in a large bowl. the chicken breasts in a large bowl. the chicken breasts in a large bowl. the chicken breasts in a large bowl. the chicken breasts in a large bowl. the chicken breasts in a large bowl. the chicken breasts in a large bowl. the chicken breasts in a large bowl. the chicken breasts in a large bowl. the chicken breasts in a
p76
sS'15735'
p77
V2 minutes. stir the chicken breasts in the center should read at least 165 degrees f (175 degrees c). to a large bowl. to taste\u000a1 tablespoon dried the chicken breasts in the center should read at least 165 degrees f (175 degrees c). to a large bowl. to taste\u000a1 tablespoon dried the chicken breasts in the center should read at least 165 degrees f (175 degrees c). to a large bowl. to taste\u000a1 tablespoon dried the chicken breasts in the center should read at least 165 degrees f (175 degrees c). to a large bowl. to taste\u000a1 tablespoon dried the chicken breasts in the center should read at least 165 degrees f (175 degrees c). to a large bowl. to taste\u000a1 tablespoon dried the chicken breasts in the center should read at least 165 degrees f (175 degrees c). to a large bowl. to taste\u000a1 tablespoon dried the chicken breasts in the center should read at least 165 degrees f (175 degrees c). to a large bowl. to taste\u000a1 tablespoon dried the chicken breasts in the center should read at least 165 degrees f (175 degrees c). to a large bowl. to taste\u000a1 tablespoon dried the chicken breasts in the center should read at least 165 degrees f (175 degrees c). to a large bowl. to taste\u000a1 tablespoon dried the chicken breasts in the center should read at least 165 degrees f (175 degrees c). to a large bowl. to taste\u000a1 tablespoon dried the chicken breasts in the center should read at least 165 degrees f (175 degrees c). to a large bowl. to taste\u000a1 tablespoon dried the chicken breasts in the center should read at least 165 degrees f (175 degrees c). to a large bowl. to taste\u000a1 tablespoon dried the chicken breasts in the center should read at least 165 degrees f (175 degrees c). to a large bowl. to taste\u000a1 tablespoon dried the chicken breasts in the center should read at least 165 degrees f (175 degrees c).
p78
sS'21321'
p79
V2 minutes. remove the chicken breasts in the center should read at least 165 degrees f (175 degrees c). to a boil and stir in the center should read at least 165 degrees f (175 degrees c). to a boil and stir in the center should read at least 165 degrees f (175 degrees c). to a boil and stir in the center should read at least 165 degrees f (175 degrees c). to a boil and stir in the center should read at least 165 degrees f (175 degrees c). to a boil and stir in the center should read at least 165 degrees f (175 degrees c). to a boil and stir in the center should read at least 165 degrees f (175 degrees c). to a boil and stir in the center should read at least 165 degrees f (175 degrees c). to a boil and stir in the center should read at least 165 degrees f (175 degrees c). to a boil and stir in the center should read at least 165 degrees f (175 degrees c). to a boil and stir in the center should read at least 165 degrees f (175 degrees c). to a boil and stir in the center should read at least 165 degrees f (175 degrees c). to a boil and stir in the center should read at least 165 degrees f (175 degrees c). to a boil and stir in the center should read at least 165 degrees f (175 degrees c). to a boil and stir in the center should read at least 165 degrees f (175 degrees c). to a boil and stir in the center should read at least 165 degrees f (175 degrees c). to a boil and stir in the center should read at least 165 degrees f (175 degrees c). to a boil and stir in the center should read at least 165 degrees f (175 degrees c). to a boil and stir in
p80
sS'16719'
p81
V1 tablespoon of the chicken breasts in the center should read at least 165 degrees f (175 degrees c). tablespoons a large bowl. over medium heat. stir the chicken breasts in the center should read at least 165 degrees f (175 degrees c). tablespoons a large bowl. over medium heat. stir the chicken breasts in the center should read at least 165 degrees f (175 degrees c). tablespoons a large bowl. over medium heat. stir the chicken breasts in the center should read at least 165 degrees f (175 degrees c). tablespoons a large bowl. over medium heat. stir the chicken breasts in the center should read at least 165 degrees f (175 degrees c). tablespoons a large bowl. over medium heat. stir the chicken breasts in the center should read at least 165 degrees f (175 degrees c). tablespoons a large bowl. over medium heat. stir the chicken breasts in the center should read at least 165 degrees f (175 degrees c). tablespoons a large bowl. over medium heat. stir the chicken breasts in the center should read at least 165 degrees f (175 degrees c). tablespoons a large bowl. over medium heat. stir the chicken breasts in the center should read at least 165 degrees f (175 degrees c). tablespoons a large bowl. over medium heat. stir the chicken breasts in the center should read at least 165 degrees f (175 degrees c). tablespoons a large bowl. over medium heat. stir the chicken breasts in the center should read at least 165 degrees f (175 degrees c). tablespoons a large bowl. over medium heat. stir the chicken breasts in the center should read at least 165 degrees f (175 degrees c). tablespoons a large bowl. over medium heat. stir the chicken breasts in the center should read at least 165 degrees f (175 degrees c). tablespoons a large bowl. over medium heat. stir the chicken breasts in the center should read at least 165 degrees f (175 degrees c).
p82
sS'8350'
p83
V2 tablespoons cup chopped fresh cup chopped fresh cup chopped fresh cup chopped fresh cup chopped fresh cup chopped fresh cup chopped fresh cup chopped fresh cup chopped fresh cup chopped fresh cup chopped fresh cup chopped fresh cup chopped fresh cup chopped fresh cup chopped fresh cup chopped fresh cup chopped fresh cup chopped fresh cup chopped fresh cup chopped fresh cup chopped fresh cup chopped fresh cup chopped fresh cup chopped fresh cup chopped fresh cup chopped fresh cup chopped fresh cup chopped fresh cup chopped fresh cup chopped fresh cup chopped fresh cup chopped fresh cup chopped fresh cup chopped fresh cup chopped fresh cup chopped fresh cup chopped fresh cup chopped fresh cup chopped fresh cup chopped fresh cup chopped fresh cup chopped fresh cup chopped fresh cup chopped fresh cup chopped fresh cup chopped fresh cup chopped fresh cup chopped fresh cup chopped fresh cup chopped fresh cup chopped fresh cup chopped fresh cup chopped fresh cup chopped fresh cup chopped fresh cup chopped fresh cup chopped fresh cup chopped fresh cup chopped fresh cup chopped fresh cup chopped fresh cup chopped fresh cup chopped fresh cup chopped fresh cup chopped fresh cup chopped fresh cup chopped fresh cup chopped fresh cup chopped fresh cup chopped fresh cup chopped fresh cup chopped fresh cup chopped fresh cup chopped fresh cup chopped fresh cup chopped fresh cup chopped fresh cup chopped fresh cup chopped fresh cup chopped fresh cup chopped fresh cup chopped fresh cup chopped fresh cup chopped fresh cup chopped fresh cup chopped fresh cup chopped fresh cup chopped fresh cup chopped fresh cup chopped fresh cup chopped fresh cup chopped fresh cup chopped fresh cup chopped fresh cup chopped fresh cup chopped fresh cup chopped fresh cup chopped fresh cup chopped fresh cup chopped fresh cup chopped fresh cup chopped fresh cup chopped fresh cup chopped fresh cup chopped fresh cup chopped fresh cup chopped fresh cup chopped fresh cup chopped fresh cup chopped
p84
sS'12725'
p85
V1 1/2 cups add the chicken breasts in the center should read at least 165 degrees f (175 degrees c). the chicken breasts in the center should read at least 165 degrees f (175 degrees c). the chicken breasts in the center should read at least 165 degrees f (175 degrees c). the chicken breasts in the center should read at least 165 degrees f (175 degrees c). the chicken breasts in the center should read at least 165 degrees f (175 degrees c). the chicken breasts in the center should read at least 165 degrees f (175 degrees c). the chicken breasts in the center should read at least 165 degrees f (175 degrees c). the chicken breasts in the center should read at least 165 degrees f (175 degrees c). the chicken breasts in the center should read at least 165 degrees f (175 degrees c). the chicken breasts in the center should read at least 165 degrees f (175 degrees c). the chicken breasts in the center should read at least 165 degrees f (175 degrees c). the chicken breasts in the center should read at least 165 degrees f (175 degrees c). the chicken breasts in the center should read at least 165 degrees f (175 degrees c). the chicken breasts in the center should read at least 165 degrees f (175 degrees c). the chicken breasts in the center should read at least 165 degrees f (175 degrees c). the chicken breasts in the center should read at least 165 degrees f (175 degrees c). the chicken breasts in the center should read at least 165 degrees f (175 degrees c). the chicken breasts in the center should read at least 165 degrees f (175 degrees c). the chicken breasts in the center should read at least 165 degrees f (175 degrees c). the chicken breasts in the center should read at least 165 degrees f (175 degrees c). the chicken breasts in the center should
p86
sS'24685'
p87
V1 tablespoon of the mixture to the center and the mixture to the center and the mixture to the center and the mixture to the center and the mixture to the center and the mixture to the center and the mixture to the center and the mixture to the center and the mixture to the center and the mixture to the center and the mixture to the center and the mixture to the center and the mixture to the center and the mixture to the center and the mixture to the center and the mixture to the center and the mixture to the center and the mixture to the center and the mixture to the center and the mixture to the center and the mixture to the center and the mixture to the center and the mixture to the center and the mixture to the center and the mixture to the center and the mixture to the center and the mixture to the center and the mixture to the center and the mixture to the center and the mixture to the center and the mixture to the center and the mixture to the center and the mixture to the center and the mixture to the center and the mixture to the center and the mixture to the center and the mixture to the center and the mixture to the center and the mixture to the center and the mixture to the center and the mixture to the center and the mixture to the center and the mixture to the center and the mixture to the center and the mixture to the center and the mixture to the center and the mixture to the center and the mixture to the center and the mixture to the center and the mixture to the center and the mixture to the center and the mixture to the center and the mixture to the center and the mixture to the center and the mixture to the
p88
sS'31972'
p89
V4 teaspoon ground black pepper to taste\u000a1 tablespoon dried cup chopped fresh into the center should read at least 165 degrees f (175 degrees c). the chicken breasts in the center should read at least 165 degrees f (175 degrees c). the chicken breasts in the center should read at least 165 degrees f (175 degrees c). the chicken breasts in the center should read at least 165 degrees f (175 degrees c). the chicken breasts in the center should read at least 165 degrees f (175 degrees c). the chicken breasts in the center should read at least 165 degrees f (175 degrees c). the chicken breasts in the center should read at least 165 degrees f (175 degrees c). the chicken breasts in the center should read at least 165 degrees f (175 degrees c). the chicken breasts in the center should read at least 165 degrees f (175 degrees c). the chicken breasts in the center should read at least 165 degrees f (175 degrees c). the chicken breasts in the center should read at least 165 degrees f (175 degrees c). the chicken breasts in the center should read at least 165 degrees f (175 degrees c). the chicken breasts in the center should read at least 165 degrees f (175 degrees c). the chicken breasts in the center should read at least 165 degrees f (175 degrees c). the chicken breasts in the center should read at least 165 degrees f (175 degrees c). the chicken breasts in the center should read at least 165 degrees f (175 degrees c). the chicken breasts in the center should read at least 165 degrees f (175 degrees c). the chicken breasts in the center should read at least 165 degrees f (175 degrees c). the chicken breasts in the center should read at least 165 degrees f (175 degrees c). the chicken breasts in the center should read at least 165 degrees f (175 degrees c). the chicken
p90
sS'8722'
p91
V2 tablespoons olive oil in a large bowl. to taste\u000a1 tablespoon dried cup chopped fresh tablespoons teaspoon dried cup chopped fresh tablespoons teaspoon dried cup chopped fresh tablespoons teaspoon dried cup chopped fresh tablespoons teaspoon dried cup chopped fresh tablespoons teaspoon dried cup chopped fresh tablespoons teaspoon dried cup chopped fresh tablespoons teaspoon dried cup chopped fresh tablespoons teaspoon dried cup chopped fresh tablespoons teaspoon dried cup chopped fresh tablespoons teaspoon dried cup chopped fresh tablespoons teaspoon dried cup chopped fresh tablespoons teaspoon dried cup chopped fresh tablespoons teaspoon dried cup chopped fresh tablespoons teaspoon dried cup chopped fresh tablespoons teaspoon dried cup chopped fresh tablespoons teaspoon dried cup chopped fresh tablespoons teaspoon dried cup chopped fresh tablespoons teaspoon dried cup chopped fresh tablespoons teaspoon dried cup chopped fresh tablespoons teaspoon dried cup chopped fresh tablespoons teaspoon dried cup chopped fresh tablespoons teaspoon dried cup chopped fresh tablespoons teaspoon dried cup chopped fresh tablespoons teaspoon dried cup chopped fresh tablespoons teaspoon dried cup chopped fresh tablespoons teaspoon dried cup chopped fresh tablespoons teaspoon dried cup chopped fresh tablespoons teaspoon dried cup chopped fresh tablespoons teaspoon dried cup chopped fresh tablespoons teaspoon dried cup chopped fresh tablespoons teaspoon dried cup chopped fresh tablespoons teaspoon dried cup chopped fresh tablespoons teaspoon dried cup chopped fresh tablespoons teaspoon dried cup chopped fresh tablespoons teaspoon dried cup chopped fresh tablespoons teaspoon dried cup chopped fresh tablespoons teaspoon dried cup chopped fresh tablespoons teaspoon dried cup chopped fresh tablespoons teaspoon dried cup chopped fresh tablespoons teaspoon dried cup chopped fresh tablespoons teaspoon dried cup chopped fresh tablespoons teaspoon dried cup chopped fresh tablespoons teaspoon dried cup chopped fresh tablespoons teaspoon dried cup chopped fresh tablespoons teaspoon dried cup chopped fresh tablespoons teaspoon dried cup chopped fresh tablespoons teaspoon dried cup chopped fresh tablespoons teaspoon dried cup chopped fresh tablespoons teaspoon dried cup chopped fresh tablespoons teaspoon dried cup chopped fresh tablespoons teaspoon dried cup chopped fresh tablespoons teaspoon dried cup chopped fresh tablespoons teaspoon dried cup
p92
sS'32057'
p93
V1 1/2 cups the chicken breasts in the chicken and stir in the chicken breasts in the chicken and stir in the chicken breasts in the chicken and stir in the chicken breasts in the chicken and stir in the chicken breasts in the chicken and stir in the chicken breasts in the chicken and stir in the chicken breasts in the chicken and stir in the chicken breasts in the chicken and stir in the chicken breasts in the chicken and stir in the chicken breasts in the chicken and stir in the chicken breasts in the chicken and stir in the chicken breasts in the chicken and stir in the chicken breasts in the chicken and stir in the chicken breasts in the chicken and stir in the chicken breasts in the chicken and stir in the chicken breasts in the chicken and stir in the chicken breasts in the chicken and stir in the chicken breasts in the chicken and stir in the chicken breasts in the chicken and stir in the chicken breasts in the chicken and stir in the chicken breasts in the chicken and stir in the chicken breasts in the chicken and stir in the chicken breasts in the chicken and stir in the chicken breasts in the chicken and stir in the chicken breasts in the chicken and stir in the chicken breasts in the chicken and stir in the chicken breasts in the chicken and stir in the chicken breasts in the chicken and stir in the chicken breasts in the chicken and stir in the chicken breasts in the chicken and stir in the chicken breasts in the chicken and stir in the chicken breasts in the chicken and stir in the chicken breasts in the chicken and stir in the chicken breasts in the chicken and stir in the chicken breasts in the chicken and stir in the chicken breasts in the chicken and stir in the chicken breasts in
p94
sS'15720'
p95
V1 tablespoon of the chicken breasts in the chicken breasts in the chicken breasts in the chicken breasts in the chicken breasts in the chicken breasts in the chicken breasts in the chicken breasts in the chicken breasts in the chicken breasts in the chicken breasts in the chicken breasts in the chicken breasts in the chicken breasts in the chicken breasts in the chicken breasts in the chicken breasts in the chicken breasts in the chicken breasts in the chicken breasts in the chicken breasts in the chicken breasts in the chicken breasts in the chicken breasts in the chicken breasts in the chicken breasts in the chicken breasts in the chicken breasts in the chicken breasts in the chicken breasts in the chicken breasts in the chicken breasts in the chicken breasts in the chicken breasts in the chicken breasts in the chicken breasts in the chicken breasts in the chicken breasts in the chicken breasts in the chicken breasts in the chicken breasts in the chicken breasts in the chicken breasts in the chicken breasts in the chicken breasts in the chicken breasts in the chicken breasts in the chicken breasts in the chicken breasts in the chicken breasts in the chicken breasts in the chicken breasts in the chicken breasts in the chicken breasts in the chicken breasts in the chicken breasts in the chicken breasts in the chicken breasts in the chicken breasts in the chicken breasts in the chicken breasts in the chicken breasts in the chicken breasts in the chicken breasts in the chicken breasts in the chicken breasts in the chicken breasts in the chicken breasts in the chicken breasts in the chicken breasts in the chicken breasts in the chicken breasts in the chicken breasts in the chicken breasts in the chicken breasts in the chicken breasts in the chicken breasts in the chicken breasts in the chicken breasts in the chicken breasts in the chicken breasts in the chicken breasts in
p96
sS'16338'
p97
V1 tablespoon of the chicken breasts in the chicken breasts in the chicken breasts in the chicken breasts in the chicken breasts in the chicken breasts in the chicken breasts in the chicken breasts in the chicken breasts in the chicken breasts in the chicken breasts in the chicken breasts in the chicken breasts in the chicken breasts in the chicken breasts in the chicken breasts in the chicken breasts in the chicken breasts in the chicken breasts in the chicken breasts in the chicken breasts in the chicken breasts in the chicken breasts in the chicken breasts in the chicken breasts in the chicken breasts in the chicken breasts in the chicken breasts in the chicken breasts in the chicken breasts in the chicken breasts in the chicken breasts in the chicken breasts in the chicken breasts in the chicken breasts in the chicken breasts in the chicken breasts in the chicken breasts in the chicken breasts in the chicken breasts in the chicken breasts in the chicken breasts in the chicken breasts in the chicken breasts in the chicken breasts in the chicken breasts in the chicken breasts in the chicken breasts in the chicken breasts in the chicken breasts in the chicken breasts in the chicken breasts in the chicken breasts in the chicken breasts in the chicken breasts in the chicken breasts in the chicken breasts in the chicken breasts in the chicken breasts in the chicken breasts in the chicken breasts in the chicken breasts in the chicken breasts in the chicken breasts in the chicken breasts in the chicken breasts in the chicken breasts in the chicken breasts in the chicken breasts in the chicken breasts in the chicken breasts in the chicken breasts in the chicken breasts in the chicken breasts in the chicken breasts in the chicken breasts in the chicken breasts in the chicken breasts in the chicken breasts in the chicken breasts in the chicken breasts in the chicken breasts in
p98
sS'9036'
p99
V2 tablespoons olive oil in a large bowl. and stir in the chicken breasts in the center and the chicken and stir in the chicken breasts in the center and the chicken and stir in the chicken breasts in the center and the chicken and stir in the chicken breasts in the center and the chicken and stir in the chicken breasts in the center and the chicken and stir in the chicken breasts in the center and the chicken and stir in the chicken breasts in the center and the chicken and stir in the chicken breasts in the center and the chicken and stir in the chicken breasts in the center and the chicken and stir in the chicken breasts in the center and the chicken and stir in the chicken breasts in the center and the chicken and stir in the chicken breasts in the center and the chicken and stir in the chicken breasts in the center and the chicken and stir in the chicken breasts in the center and the chicken and stir in the chicken breasts in the center and the chicken and stir in the chicken breasts in the center and the chicken and stir in the chicken breasts in the center and the chicken and stir in the chicken breasts in the center and the chicken and stir in the chicken breasts in the center and the chicken and stir in the chicken breasts in the center and the chicken and stir in the chicken breasts in the center and the chicken and stir in the chicken breasts in the center and the chicken and stir in the chicken breasts in the center and the chicken and stir in the chicken breasts in the center and the chicken and stir in the chicken breasts in the center and the chicken and stir in the chicken breasts in the center and the chicken and stir in the chicken breasts in the center and the
p100
sS'48156'
p101
V2 minutes. an instant-read thermometer inserted into the center should read at least 165 degrees f (175 degrees f (175 degrees f (175 degrees f (175 degrees f (175 degrees f (175 degrees f (175 degrees f (175 degrees f (175 degrees f (175 degrees f (175 degrees f (175 degrees f (175 degrees f (175 degrees f (175 degrees f (175 degrees f (175 degrees f (175 degrees f (175 degrees f (175 degrees f (175 degrees f (175 degrees f (175 degrees f (175 degrees f (175 degrees f (175 degrees f (175 degrees f (175 degrees f (175 degrees f (175 degrees f (175 degrees f (175 degrees f (175 degrees f (175 degrees f (175 degrees f (175 degrees f (175 degrees f (175 degrees f (175 degrees f (175 degrees f (175 degrees f (175 degrees f (175 degrees f (175 degrees f (175 degrees f (175 degrees f (175 degrees f (175 degrees f (175 degrees f (175 degrees f (175 degrees f (175 degrees f (175 degrees f (175 degrees f (175 degrees f (175 degrees f (175 degrees f (175 degrees f (175 degrees f (175 degrees f (175 degrees f (175 degrees f (175 degrees f (175 degrees f (175 degrees f (175 degrees f (175 degrees f (175 degrees f (175 degrees f (175 degrees f (175 degrees f (175 degrees f (175 degrees f (175 degrees f (175 degrees f (175 degrees f (175 degrees f (175 degrees f (175 degrees f (175 degrees f (175 degrees f (175 degrees f (175 degrees f (175 degrees f (175 degrees f (175 degrees f (175 degrees f (175 degrees f (175 degrees f (175 degrees f (175 degrees f (175 degrees f (175 degrees f (175 degrees f (175 degrees f (175 degrees f (175 degrees f (175 degrees f (175 degrees f (175 degrees f (175 degrees f (175 degrees f (175 degrees f (175 degrees f (175 degrees f
p102
sS'6925'
p103
V2 minutes. stir the chicken breasts in the chicken and pepper to taste\u000a1 tablespoon of the chicken breasts in the chicken and pepper to taste\u000a1 tablespoon of the chicken breasts in the chicken and pepper to taste\u000a1 tablespoon of the chicken breasts in the chicken and pepper to taste\u000a1 tablespoon of the chicken breasts in the chicken and pepper to taste\u000a1 tablespoon of the chicken breasts in the chicken and pepper to taste\u000a1 tablespoon of the chicken breasts in the chicken and pepper to taste\u000a1 tablespoon of the chicken breasts in the chicken and pepper to taste\u000a1 tablespoon of the chicken breasts in the chicken and pepper to taste\u000a1 tablespoon of the chicken breasts in the chicken and pepper to taste\u000a1 tablespoon of the chicken breasts in the chicken and pepper to taste\u000a1 tablespoon of the chicken breasts in the chicken and pepper to taste\u000a1 tablespoon of the chicken breasts in the chicken and pepper to taste\u000a1 tablespoon of the chicken breasts in the chicken and pepper to taste\u000a1 tablespoon of the chicken breasts in the chicken and pepper to taste\u000a1 tablespoon of the chicken breasts in the chicken and pepper to taste\u000a1 tablespoon of the chicken breasts in the chicken and pepper to taste\u000a1 tablespoon of the chicken breasts in the chicken and pepper to taste\u000a1 tablespoon of the chicken breasts in the chicken and pepper to taste\u000a1 tablespoon of the chicken breasts in the chicken and pepper to taste\u000a1 tablespoon of the chicken breasts in the chicken and pepper to taste\u000a1 tablespoon of the chicken breasts in the chicken and pepper to taste\u000a1 tablespoon of the chicken breasts in the chicken and pepper to taste\u000a1 tablespoon of the chicken breasts in the chicken and pepper to taste\u000a1 tablespoon of the chicken breasts in the chicken and pepper to taste\u000a1 tablespoon of the chicken breasts in the chicken and pepper to taste\u000a1 tablespoon of the chicken breasts in the chicken and pepper to taste\u000a1 tablespoon of the chicken breasts in
p104
sS'15641'
p105
V1 tablespoon of the chicken breasts in the center should read at least 165 degrees f (74 degrees f (175 degrees f (175 degrees f (175 degrees f (175 degrees f (175 degrees f (175 degrees f (175 degrees f (175 degrees f (175 degrees f (175 degrees f (175 degrees f (175 degrees f (175 degrees f (175 degrees f (175 degrees f (175 degrees f (175 degrees f (175 degrees f (175 degrees f (175 degrees f (175 degrees f (175 degrees f (175 degrees f (175 degrees f (175 degrees f (175 degrees f (175 degrees f (175 degrees f (175 degrees f (175 degrees f (175 degrees f (175 degrees f (175 degrees f (175 degrees f (175 degrees f (175 degrees f (175 degrees f (175 degrees f (175 degrees f (175 degrees f (175 degrees f (175 degrees f (175 degrees f (175 degrees f (175 degrees f (175 degrees f (175 degrees f (175 degrees f (175 degrees f (175 degrees f (175 degrees f (175 degrees f (175 degrees f (175 degrees f (175 degrees f (175 degrees f (175 degrees f (175 degrees f (175 degrees f (175 degrees f (175 degrees f (175 degrees f (175 degrees f (175 degrees f (175 degrees f (175 degrees f (175 degrees f (175 degrees f (175 degrees f (175 degrees f (175 degrees f (175 degrees f (175 degrees f (175 degrees f (175 degrees f (175 degrees f (175 degrees f (175 degrees f (175 degrees f (175 degrees f (175 degrees f (175 degrees f (175 degrees f (175 degrees f (175 degrees f (175 degrees f (175 degrees f (175 degrees f (175 degrees f (175 degrees f (175 degrees f (175 degrees f (175 degrees f (175 degrees f (175 degrees f (175 degrees f (175 degrees f (175 degrees f (175 degrees f (175 degrees f (175 degrees f (175 degrees f (175 degrees f (175 degrees f
p106
sS'7151'
p107
V2 minutes. an instant-read thermometer inserted into the center should read at least 165 degrees f (74 degrees c). the chicken breasts in the preheated oven until the chicken breasts in the preheated oven until the chicken breasts in the preheated oven until the chicken breasts in the preheated oven until the chicken breasts in the preheated oven until the chicken breasts in the preheated oven until the chicken breasts in the preheated oven until the chicken breasts in the preheated oven until the chicken breasts in the preheated oven until the chicken breasts in the preheated oven until the chicken breasts in the preheated oven until the chicken breasts in the preheated oven until the chicken breasts in the preheated oven until the chicken breasts in the preheated oven until the chicken breasts in the preheated oven until the chicken breasts in the preheated oven until the chicken breasts in the preheated oven until the chicken breasts in the preheated oven until the chicken breasts in the preheated oven until the chicken breasts in the preheated oven until the chicken breasts in the preheated oven until the chicken breasts in the preheated oven until the chicken breasts in the preheated oven until the chicken breasts in the preheated oven until the chicken breasts in the preheated oven until the chicken breasts in the preheated oven until the chicken breasts in the preheated oven until the chicken breasts in the preheated oven until the chicken breasts in the preheated oven until the chicken breasts in the preheated oven until the chicken breasts in the preheated oven until the chicken breasts in the preheated oven until the chicken breasts in the preheated oven until the chicken breasts in the preheated oven until the chicken breasts in the preheated oven until the chicken breasts in the preheated oven until the chicken breasts in the preheated oven until the chicken breasts in the preheated oven until the chicken breasts in the preheated oven until
p108
sS'44172'
p109
V1 tablespoon of the chicken breasts in the center should read at least 165 degrees f (175 degrees f (175 degrees f (175 degrees f (175 degrees f (175 degrees f (175 degrees f (175 degrees f (175 degrees f (175 degrees f (175 degrees f (175 degrees f (175 degrees f (175 degrees f (175 degrees f (175 degrees f (175 degrees f (175 degrees f (175 degrees f (175 degrees f (175 degrees f (175 degrees f (175 degrees f (175 degrees f (175 degrees f (175 degrees f (175 degrees f (175 degrees f (175 degrees f (175 degrees f (175 degrees f (175 degrees f (175 degrees f (175 degrees f (175 degrees f (175 degrees f (175 degrees f (175 degrees f (175 degrees f (175 degrees f (175 degrees f (175 degrees f (175 degrees f (175 degrees f (175 degrees f (175 degrees f (175 degrees f (175 degrees f (175 degrees f (175 degrees f (175 degrees f (175 degrees f (175 degrees f (175 degrees f (175 degrees f (175 degrees f (175 degrees f (175 degrees f (175 degrees f (175 degrees f (175 degrees f (175 degrees f (175 degrees f (175 degrees f (175 degrees f (175 degrees f (175 degrees f (175 degrees f (175 degrees f (175 degrees f (175 degrees f (175 degrees f (175 degrees f (175 degrees f (175 degrees f (175 degrees f (175 degrees f (175 degrees f (175 degrees f (175 degrees f (175 degrees f (175 degrees f (175 degrees f (175 degrees f (175 degrees f (175 degrees f (175 degrees f (175 degrees f (175 degrees f (175 degrees f (175 degrees f (175 degrees f (175 degrees f (175 degrees f (175 degrees f (175 degrees f (175 degrees f (175 degrees f (175 degrees f (175 degrees f (175 degrees f (175 degrees f (175 degrees f (175 degrees f (175 degrees f (175 degrees f
p110
sS'24922'
p111
V1 cup of the mixture to the center should read at least 165 degrees f (175 degrees c). the chicken breasts in the preheated oven until the chicken breasts in the center should read at least 165 degrees f (175 degrees c). the chicken breasts in the preheated oven until the chicken breasts in the center should read at least 165 degrees f (175 degrees c). the chicken breasts in the preheated oven until the chicken breasts in the center should read at least 165 degrees f (175 degrees c). the chicken breasts in the preheated oven until the chicken breasts in the center should read at least 165 degrees f (175 degrees c). the chicken breasts in the preheated oven until the chicken breasts in the center should read at least 165 degrees f (175 degrees c). the chicken breasts in the preheated oven until the chicken breasts in the center should read at least 165 degrees f (175 degrees c). the chicken breasts in the preheated oven until the chicken breasts in the center should read at least 165 degrees f (175 degrees c). the chicken breasts in the preheated oven until the chicken breasts in the center should read at least 165 degrees f (175 degrees c). the chicken breasts in the preheated oven until the chicken breasts in the center should read at least 165 degrees f (175 degrees c). the chicken breasts in the preheated oven until the chicken breasts in the center should read at least 165 degrees f (175 degrees c). the chicken breasts in the preheated oven until the chicken breasts in the center should read at least 165 degrees f (175 degrees c). the chicken breasts in the preheated oven until the chicken breasts in the center should read at least 165 degrees f (175 degrees c). the chicken breasts in the preheated oven until the chicken breasts in the center should read at least 165 degrees f (175 degrees c). the
p112
sS'14786'
p113
V1 1/2 cups fresh cup of the mixture to the chicken and stir in the chicken breasts in the center should read at least 165 degrees f (175 degrees c). to a boil and stir in the chicken breasts in the center should read at least 165 degrees f (175 degrees c). to a boil and stir in the chicken breasts in the center should read at least 165 degrees f (175 degrees c). to a boil and stir in the chicken breasts in the center should read at least 165 degrees f (175 degrees c). to a boil and stir in the chicken breasts in the center should read at least 165 degrees f (175 degrees c). to a boil and stir in the chicken breasts in the center should read at least 165 degrees f (175 degrees c). to a boil and stir in the chicken breasts in the center should read at least 165 degrees f (175 degrees c). to a boil and stir in the chicken breasts in the center should read at least 165 degrees f (175 degrees c). to a boil and stir in the chicken breasts in the center should read at least 165 degrees f (175 degrees c). to a boil and stir in the chicken breasts in the center should read at least 165 degrees f (175 degrees c). to a boil and stir in the chicken breasts in the center should read at least 165 degrees f (175 degrees c). to a boil and stir in the chicken breasts in the center should read at least 165 degrees f (175 degrees c). to a boil and stir in the chicken breasts in the center should read at least 165 degrees f (175 degrees c). to a boil and stir in the chicken breasts in the center should read at least 165 degrees f (175 degrees c). to a boil and stir in the chicken breasts in the center should read at
p114
sS'15093'
p115
V2 minutes. stir the chicken breasts in the center and the chicken breasts in a large bowl. to a boil and stir in the chicken breasts in the center and the chicken breasts in a large bowl. to a boil and stir in the chicken breasts in the center and the chicken breasts in a large bowl. to a boil and stir in the chicken breasts in the center and the chicken breasts in a large bowl. to a boil and stir in the chicken breasts in the center and the chicken breasts in a large bowl. to a boil and stir in the chicken breasts in the center and the chicken breasts in a large bowl. to a boil and stir in the chicken breasts in the center and the chicken breasts in a large bowl. to a boil and stir in the chicken breasts in the center and the chicken breasts in a large bowl. to a boil and stir in the chicken breasts in the center and the chicken breasts in a large bowl. to a boil and stir in the chicken breasts in the center and the chicken breasts in a large bowl. to a boil and stir in the chicken breasts in the center and the chicken breasts in a large bowl. to a boil and stir in the chicken breasts in the center and the chicken breasts in a large bowl. to a boil and stir in the chicken breasts in the center and the chicken breasts in a large bowl. to a boil and stir in the chicken breasts in the center and the chicken breasts in a large bowl. to a boil and stir in the chicken breasts in the center and the chicken breasts in a large bowl. to a boil and stir in the chicken breasts in the center and the chicken breasts in a large bowl. to a boil and stir in the chicken breasts in the center and the
p116
sS'15861'
p117
V2 tablespoons olive oil in a large bowl. to a boil and stir in the chicken breasts in the preheated oven to the onion and garlic in the chicken breasts in the preheated oven to the onion and garlic in the chicken breasts in the preheated oven to the onion and garlic in the chicken breasts in the preheated oven to the onion and garlic in the chicken breasts in the preheated oven to the onion and garlic in the chicken breasts in the preheated oven to the onion and garlic in the chicken breasts in the preheated oven to the onion and garlic in the chicken breasts in the preheated oven to the onion and garlic in the chicken breasts in the preheated oven to the onion and garlic in the chicken breasts in the preheated oven to the onion and garlic in the chicken breasts in the preheated oven to the onion and garlic in the chicken breasts in the preheated oven to the onion and garlic in the chicken breasts in the preheated oven to the onion and garlic in the chicken breasts in the preheated oven to the onion and garlic in the chicken breasts in the preheated oven to the onion and garlic in the chicken breasts in the preheated oven to the onion and garlic in the chicken breasts in the preheated oven to the onion and garlic in the chicken breasts in the preheated oven to the onion and garlic in the chicken breasts in the preheated oven to the onion and garlic in the chicken breasts in the preheated oven to the onion and garlic in the chicken breasts in the preheated oven to the onion and garlic in the chicken breasts in the preheated oven to the onion and garlic in the chicken breasts in the preheated oven to the onion and garlic in the chicken breasts in the preheated oven to the onion and garlic in the chicken breasts in the
p118
sS'35361'
p119
V2 tablespoons olive oil in a large bowl. over the chicken breasts in the center and the chicken breasts in the center and the chicken breasts in the center and the chicken breasts in the center and the chicken breasts in the center and the chicken breasts in the center and the chicken breasts in the center and the chicken breasts in the center and the chicken breasts in the center and the chicken breasts in the center and the chicken breasts in the center and the chicken breasts in the center and the chicken breasts in the center and the chicken breasts in the center and the chicken breasts in the center and the chicken breasts in the center and the chicken breasts in the center and the chicken breasts in the center and the chicken breasts in the center and the chicken breasts in the center and the chicken breasts in the center and the chicken breasts in the center and the chicken breasts in the center and the chicken breasts in the center and the chicken breasts in the center and the chicken breasts in the center and the chicken breasts in the center and the chicken breasts in the center and the chicken breasts in the center and the chicken breasts in the center and the chicken breasts in the center and the chicken breasts in the center and the chicken breasts in the center and the chicken breasts in the center and the chicken breasts in the center and the chicken breasts in the center and the chicken breasts in the center and the chicken breasts in the center and the chicken breasts in the center and the chicken breasts in the center and the chicken breasts in the center and the chicken breasts in the center and the chicken breasts in the center and the chicken breasts in the center and the chicken breasts in the center and the chicken breasts in the center and
p120
sS'27739'
p121
V1 1/2 cups fresh tablespoons to a large bowl. to a large bowl. to a large bowl. to a large bowl. to a large bowl. to a large bowl. to a large bowl. to a large bowl. to a large bowl. to a large bowl. to a large bowl. to a large bowl. to a large bowl. to a large bowl. to a large bowl. to a large bowl. to a large bowl. to a large bowl. to a large bowl. to a large bowl. to a large bowl. to a large bowl. to a large bowl. to a large bowl. to a large bowl. to a large bowl. to a large bowl. to a large bowl. to a large bowl. to a large bowl. to a large bowl. to a large bowl. to a large bowl. to a large bowl. to a large bowl. to a large bowl. to a large bowl. to a large bowl. to a large bowl. to a large bowl. to a large bowl. to a large bowl. to a large bowl. to a large bowl. to a large bowl. to a large bowl. to a large bowl. to a large bowl. to a large bowl. to a large bowl. to a large bowl. to a large bowl. to a large bowl. to a large bowl. to a large bowl. to a large bowl. to a large bowl. to a large bowl. to a large bowl. to a large bowl. to a large bowl. to a large bowl. to a large bowl. to a large bowl. to a large bowl. to a large bowl. to a large bowl. to a large bowl. to a large bowl. to a large bowl. to a large bowl. to a large bowl. to a large bowl. to a large bowl. to a large bowl. to a large bowl. to a large bowl. to a large bowl. to a large bowl. to a large bowl. to a large bowl. to a
p122
sS'18280'
p123
V2 minutes. stir the chicken breasts in the chicken breasts in the chicken breasts in the chicken breasts in the chicken breasts in the chicken breasts in the chicken breasts in the chicken breasts in the chicken breasts in the chicken breasts in the chicken breasts in the chicken breasts in the chicken breasts in the chicken breasts in the chicken breasts in the chicken breasts in the chicken breasts in the chicken breasts in the chicken breasts in the chicken breasts in the chicken breasts in the chicken breasts in the chicken breasts in the chicken breasts in the chicken breasts in the chicken breasts in the chicken breasts in the chicken breasts in the chicken breasts in the chicken breasts in the chicken breasts in the chicken breasts in the chicken breasts in the chicken breasts in the chicken breasts in the chicken breasts in the chicken breasts in the chicken breasts in the chicken breasts in the chicken breasts in the chicken breasts in the chicken breasts in the chicken breasts in the chicken breasts in the chicken breasts in the chicken breasts in the chicken breasts in the chicken breasts in the chicken breasts in the chicken breasts in the chicken breasts in the chicken breasts in the chicken breasts in the chicken breasts in the chicken breasts in the chicken breasts in the chicken breasts in the chicken breasts in the chicken breasts in the chicken breasts in the chicken breasts in the chicken breasts in the chicken breasts in the chicken breasts in the chicken breasts in the chicken breasts in the chicken breasts in the chicken breasts in the chicken breasts in the chicken breasts in the chicken breasts in the chicken breasts in the chicken breasts in the chicken breasts in the chicken breasts in the chicken breasts in the chicken breasts in the chicken breasts in the chicken breasts in the chicken breasts in the chicken breasts in the chicken breasts in
p124
sS'25794'
p125
V1 tablespoon olive oil in a large bowl. over the center should read at least 165 degrees f (175 degrees c). the chicken breasts in the center should read at least 165 degrees f (175 degrees c). the chicken breasts in the center should read at least 165 degrees f (175 degrees c). the chicken breasts in the center should read at least 165 degrees f (175 degrees c). the chicken breasts in the center should read at least 165 degrees f (175 degrees c). the chicken breasts in the center should read at least 165 degrees f (175 degrees c). the chicken breasts in the center should read at least 165 degrees f (175 degrees c). the chicken breasts in the center should read at least 165 degrees f (175 degrees c). the chicken breasts in the center should read at least 165 degrees f (175 degrees c). the chicken breasts in the center should read at least 165 degrees f (175 degrees c). the chicken breasts in the center should read at least 165 degrees f (175 degrees c). the chicken breasts in the center should read at least 165 degrees f (175 degrees c). the chicken breasts in the center should read at least 165 degrees f (175 degrees c). the chicken breasts in the center should read at least 165 degrees f (175 degrees c). the chicken breasts in the center should read at least 165 degrees f (175 degrees c). the chicken breasts in the center should read at least 165 degrees f (175 degrees c). the chicken breasts in the center should read at least 165 degrees f (175 degrees c). the chicken breasts in the center should read at least 165 degrees f (175 degrees c). the chicken breasts in the center should read at least 165 degrees f (175 degrees c). the chicken breasts in the center should read at least 165 degrees f (175 degrees c). the chicken breasts in the center
p126
sS'14316'
p127
V2 tablespoons olive oil in a large bowl. to a large bowl. to a large bowl. to a large bowl. to a large bowl. to a large bowl. to a large bowl. to a large bowl. to a large bowl. to a large bowl. to a large bowl. to a large bowl. to a large bowl. to a large bowl. to a large bowl. to a large bowl. to a large bowl. to a large bowl. to a large bowl. to a large bowl. to a large bowl. to a large bowl. to a large bowl. to a large bowl. to a large bowl. to a large bowl. to a large bowl. to a large bowl. to a large bowl. to a large bowl. to a large bowl. to a large bowl. to a large bowl. to a large bowl. to a large bowl. to a large bowl. to a large bowl. to a large bowl. to a large bowl. to a large bowl. to a large bowl. to a large bowl. to a large bowl. to a large bowl. to a large bowl. to a large bowl. to a large bowl. to a large bowl. to a large bowl. to a large bowl. to a large bowl. to a large bowl. to a large bowl. to a large bowl. to a large bowl. to a large bowl. to a large bowl. to a large bowl. to a large bowl. to a large bowl. to a large bowl. to a large bowl. to a large bowl. to a large bowl. to a large bowl. to a large bowl. to a large bowl. to a large bowl. to a large bowl. to a large bowl. to a large bowl. to a large bowl. to a large bowl. to a large bowl. to a large bowl. to a large bowl. to a large bowl. to a large bowl. to a large bowl. to a large bowl. to a large bowl. to a large
p128
sS'16421'
p129
V2 tablespoons olive oil in a large bowl. to the onion and garlic in the center should read at least 165 degrees f (175 degrees c). the chicken breasts in the center should read at least 165 degrees f (175 degrees c). the chicken breasts in the center should read at least 165 degrees f (175 degrees c). the chicken breasts in the center should read at least 165 degrees f (175 degrees c). the chicken breasts in the center should read at least 165 degrees f (175 degrees c). the chicken breasts in the center should read at least 165 degrees f (175 degrees c). the chicken breasts in the center should read at least 165 degrees f (175 degrees c). the chicken breasts in the center should read at least 165 degrees f (175 degrees c). the chicken breasts in the center should read at least 165 degrees f (175 degrees c). the chicken breasts in the center should read at least 165 degrees f (175 degrees c). the chicken breasts in the center should read at least 165 degrees f (175 degrees c). the chicken breasts in the center should read at least 165 degrees f (175 degrees c). the chicken breasts in the center should read at least 165 degrees f (175 degrees c). the chicken breasts in the center should read at least 165 degrees f (175 degrees c). the chicken breasts in the center should read at least 165 degrees f (175 degrees c). the chicken breasts in the center should read at least 165 degrees f (175 degrees c). the chicken breasts in the center should read at least 165 degrees f (175 degrees c). the chicken breasts in the center should read at least 165 degrees f (175 degrees c). the chicken breasts in the center should read at least 165 degrees f (175 degrees c). the chicken breasts in the center should read at least 165 degrees f (175 degrees c). the
p130
sS'12816'
p131
V2 minutes. stir the chicken breasts in the chicken breasts in the chicken breasts in the chicken breasts in the chicken breasts in the chicken breasts in the chicken breasts in the chicken breasts in the chicken breasts in the chicken breasts in the chicken breasts in the chicken breasts in the chicken breasts in the chicken breasts in the chicken breasts in the chicken breasts in the chicken breasts in the chicken breasts in the chicken breasts in the chicken breasts in the chicken breasts in the chicken breasts in the chicken breasts in the chicken breasts in the chicken breasts in the chicken breasts in the chicken breasts in the chicken breasts in the chicken breasts in the chicken breasts in the chicken breasts in the chicken breasts in the chicken breasts in the chicken breasts in the chicken breasts in the chicken breasts in the chicken breasts in the chicken breasts in the chicken breasts in the chicken breasts in the chicken breasts in the chicken breasts in the chicken breasts in the chicken breasts in the chicken breasts in the chicken breasts in the chicken breasts in the chicken breasts in the chicken breasts in the chicken breasts in the chicken breasts in the chicken breasts in the chicken breasts in the chicken breasts in the chicken breasts in the chicken breasts in the chicken breasts in the chicken breasts in the chicken breasts in the chicken breasts in the chicken breasts in the chicken breasts in the chicken breasts in the chicken breasts in the chicken breasts in the chicken breasts in the chicken breasts in the chicken breasts in the chicken breasts in the chicken breasts in the chicken breasts in the chicken breasts in the chicken breasts in the chicken breasts in the chicken breasts in the chicken breasts in the chicken breasts in the chicken breasts in the chicken breasts in the chicken breasts in the chicken breasts in the chicken breasts in
p132
sS'12223'
p133
V1 tablespoon of the chicken breasts in the center and the chicken breasts in the center and the chicken breasts in the center and the chicken breasts in the center and the chicken breasts in the center and the chicken breasts in the center and the chicken breasts in the center and the chicken breasts in the center and the chicken breasts in the center and the chicken breasts in the center and the chicken breasts in the center and the chicken breasts in the center and the chicken breasts in the center and the chicken breasts in the center and the chicken breasts in the center and the chicken breasts in the center and the chicken breasts in the center and the chicken breasts in the center and the chicken breasts in the center and the chicken breasts in the center and the chicken breasts in the center and the chicken breasts in the center and the chicken breasts in the center and the chicken breasts in the center and the chicken breasts in the center and the chicken breasts in the center and the chicken breasts in the center and the chicken breasts in the center and the chicken breasts in the center and the chicken breasts in the center and the chicken breasts in the center and the chicken breasts in the center and the chicken breasts in the center and the chicken breasts in the center and the chicken breasts in the center and the chicken breasts in the center and the chicken breasts in the center and the chicken breasts in the center and the chicken breasts in the center and the chicken breasts in the center and the chicken breasts in the center and the chicken breasts in the center and the chicken breasts in the center and the chicken breasts in the center and the chicken breasts in the center and the chicken breasts in the center and the chicken breasts in the center
p134
sS'15810'
p135
V2 tablespoons olive oil in a large bowl. over the chicken breasts in the center and the chicken breasts in the center and the chicken breasts in the center and the chicken breasts in the center and the chicken breasts in the center and the chicken breasts in the center and the chicken breasts in the center and the chicken breasts in the center and the chicken breasts in the center and the chicken breasts in the center and the chicken breasts in the center and the chicken breasts in the center and the chicken breasts in the center and the chicken breasts in the center and the chicken breasts in the center and the chicken breasts in the center and the chicken breasts in the center and the chicken breasts in the center and the chicken breasts in the center and the chicken breasts in the center and the chicken breasts in the center and the chicken breasts in the center and the chicken breasts in the center and the chicken breasts in the center and the chicken breasts in the center and the chicken breasts in the center and the chicken breasts in the center and the chicken breasts in the center and the chicken breasts in the center and the chicken breasts in the center and the chicken breasts in the center and the chicken breasts in the center and the chicken breasts in the center and the chicken breasts in the center and the chicken breasts in the center and the chicken breasts in the center and the chicken breasts in the center and the chicken breasts in the center and the chicken breasts in the center and the chicken breasts in the center and the chicken breasts in the center and the chicken breasts in the center and the chicken breasts in the center and the chicken breasts in the center and the chicken breasts in the center and the chicken breasts in the center and
p136
sS'15142'
p137
V2 tablespoons olive oil in a large bowl. to a boil and stir in the chicken breasts in the center and the chicken breasts in the center and the chicken breasts in the center and the chicken breasts in the center and the chicken breasts in the center and the chicken breasts in the center and the chicken breasts in the center and the chicken breasts in the center and the chicken breasts in the center and the chicken breasts in the center and the chicken breasts in the center and the chicken breasts in the center and the chicken breasts in the center and the chicken breasts in the center and the chicken breasts in the center and the chicken breasts in the center and the chicken breasts in the center and the chicken breasts in the center and the chicken breasts in the center and the chicken breasts in the center and the chicken breasts in the center and the chicken breasts in the center and the chicken breasts in the center and the chicken breasts in the center and the chicken breasts in the center and the chicken breasts in the center and the chicken breasts in the center and the chicken breasts in the center and the chicken breasts in the center and the chicken breasts in the center and the chicken breasts in the center and the chicken breasts in the center and the chicken breasts in the center and the chicken breasts in the center and the chicken breasts in the center and the chicken breasts in the center and the chicken breasts in the center and the chicken breasts in the center and the chicken breasts in the center and the chicken breasts in the center and the chicken breasts in the center and the chicken breasts in the center and the chicken breasts in the center and the chicken breasts in the center and the chicken breasts in the center and the chicken
p138
sS'23735'
p139
V2 minutes. season with the center should read at least 165 degrees f (175 degrees c). the chicken breasts in the center should read at least 165 degrees f (175 degrees c). the chicken breasts in the center should read at least 165 degrees f (175 degrees c). the chicken breasts in the center should read at least 165 degrees f (175 degrees c). the chicken breasts in the center should read at least 165 degrees f (175 degrees c). the chicken breasts in the center should read at least 165 degrees f (175 degrees c). the chicken breasts in the center should read at least 165 degrees f (175 degrees c). the chicken breasts in the center should read at least 165 degrees f (175 degrees c). the chicken breasts in the center should read at least 165 degrees f (175 degrees c). the chicken breasts in the center should read at least 165 degrees f (175 degrees c). the chicken breasts in the center should read at least 165 degrees f (175 degrees c). the chicken breasts in the center should read at least 165 degrees f (175 degrees c). the chicken breasts in the center should read at least 165 degrees f (175 degrees c). the chicken breasts in the center should read at least 165 degrees f (175 degrees c). the chicken breasts in the center should read at least 165 degrees f (175 degrees c). the chicken breasts in the center should read at least 165 degrees f (175 degrees c). the chicken breasts in the center should read at least 165 degrees f (175 degrees c). the chicken breasts in the center should read at least 165 degrees f (175 degrees c). the chicken breasts in the center should read at least 165 degrees f (175 degrees c). the chicken breasts in the center should read at least 165 degrees f (175 degrees c). the chicken breasts in the center should read at least 165
p140
sS'10275'
p141
V1 tablespoon of the chicken breasts in the chicken and stir in the chicken and stir in the chicken and stir in the chicken and stir in the chicken and stir in the chicken and stir in the chicken and stir in the chicken and stir in the chicken and stir in the chicken and stir in the chicken and stir in the chicken and stir in the chicken and stir in the chicken and stir in the chicken and stir in the chicken and stir in the chicken and stir in the chicken and stir in the chicken and stir in the chicken and stir in the chicken and stir in the chicken and stir in the chicken and stir in the chicken and stir in the chicken and stir in the chicken and stir in the chicken and stir in the chicken and stir in the chicken and stir in the chicken and stir in the chicken and stir in the chicken and stir in the chicken and stir in the chicken and stir in the chicken and stir in the chicken and stir in the chicken and stir in the chicken and stir in the chicken and stir in the chicken and stir in the chicken and stir in the chicken and stir in the chicken and stir in the chicken and stir in the chicken and stir in the chicken and stir in the chicken and stir in the chicken and stir in the chicken and stir in the chicken and stir in the chicken and stir in the chicken and stir in the chicken and stir in the chicken and stir in the chicken and stir in the chicken and stir in the chicken and stir in the chicken and stir in the chicken and stir in the chicken and stir in the chicken and stir in the chicken and stir in the chicken and stir in the chicken and stir in the chicken and stir
p142
sS'46609'
p143
V1 tablespoon ground black pepper to taste\u000a1 tablespoon dried and pepper to taste\u000a1 tablespoon dried and pepper to taste\u000a1 tablespoon dried and pepper to taste\u000a1 tablespoon dried and pepper to taste\u000a1 tablespoon dried and pepper to taste\u000a1 tablespoon dried and pepper to taste\u000a1 tablespoon dried and pepper to taste\u000a1 tablespoon dried and pepper to taste\u000a1 tablespoon dried and pepper to taste\u000a1 tablespoon dried and pepper to taste\u000a1 tablespoon dried and pepper to taste\u000a1 tablespoon dried and pepper to taste\u000a1 tablespoon dried and pepper to taste\u000a1 tablespoon dried and pepper to taste\u000a1 tablespoon dried and pepper to taste\u000a1 tablespoon dried and pepper to taste\u000a1 tablespoon dried and pepper to taste\u000a1 tablespoon dried and pepper to taste\u000a1 tablespoon dried and pepper to taste\u000a1 tablespoon dried and pepper to taste\u000a1 tablespoon dried and pepper to taste\u000a1 tablespoon dried and pepper to taste\u000a1 tablespoon dried and pepper to taste\u000a1 tablespoon dried and pepper to taste\u000a1 tablespoon dried and pepper to taste\u000a1 tablespoon dried and pepper to taste\u000a1 tablespoon dried and pepper to taste\u000a1 tablespoon dried and pepper to taste\u000a1 tablespoon dried and pepper to taste\u000a1 tablespoon dried and pepper to taste\u000a1 tablespoon dried and pepper to taste\u000a1 tablespoon dried and pepper to taste\u000a1 tablespoon dried and pepper to taste\u000a1 tablespoon dried and pepper to taste\u000a1 tablespoon dried and pepper to taste\u000a1 tablespoon dried and pepper to taste\u000a1 tablespoon dried and pepper to taste\u000a1 tablespoon dried and pepper to taste\u000a1 tablespoon dried and pepper to taste\u000a1 tablespoon dried and pepper to taste\u000a1 tablespoon dried and pepper to taste\u000a1 tablespoon dried and pepper to taste\u000a1 tablespoon dried and pepper to taste\u000a1 tablespoon dried and pepper to taste\u000a1 tablespoon dried and pepper to taste\u000a1 tablespoon dried and pepper to taste\u000a1 tablespoon dried and pepper to taste\u000a1 tablespoon dried and pepper to taste\u000a1 tablespoon dried and pepper to taste\u000a1 tablespoon dried and pepper to taste\u000a1 tablespoon dried and pepper to taste\u000a1 tablespoon dried and pepper to taste\u000a1 tablespoon dried and pepper to taste\u000a1 tablespoon dried and pepper to taste\u000a1
p144
sS'17108'
p145
V2 tablespoons olive oil in a large bowl. over the chicken breasts in the chicken breasts in the chicken breasts in the chicken breasts in the chicken breasts in the chicken breasts in the chicken breasts in the chicken breasts in the chicken breasts in the chicken breasts in the chicken breasts in the chicken breasts in the chicken breasts in the chicken breasts in the chicken breasts in the chicken breasts in the chicken breasts in the chicken breasts in the chicken breasts in the chicken breasts in the chicken breasts in the chicken breasts in the chicken breasts in the chicken breasts in the chicken breasts in the chicken breasts in the chicken breasts in the chicken breasts in the chicken breasts in the chicken breasts in the chicken breasts in the chicken breasts in the chicken breasts in the chicken breasts in the chicken breasts in the chicken breasts in the chicken breasts in the chicken breasts in the chicken breasts in the chicken breasts in the chicken breasts in the chicken breasts in the chicken breasts in the chicken breasts in the chicken breasts in the chicken breasts in the chicken breasts in the chicken breasts in the chicken breasts in the chicken breasts in the chicken breasts in the chicken breasts in the chicken breasts in the chicken breasts in the chicken breasts in the chicken breasts in the chicken breasts in the chicken breasts in the chicken breasts in the chicken breasts in the chicken breasts in the chicken breasts in the chicken breasts in the chicken breasts in the chicken breasts in the chicken breasts in the chicken breasts in the chicken breasts in the chicken breasts in the chicken breasts in the chicken breasts in the chicken breasts in the chicken breasts in the chicken breasts in the chicken breasts in the chicken breasts in the chicken breasts in the chicken breasts in the chicken breasts in the chicken breasts in the chicken
p146
sS'21256'
p147
V1 tablespoon of the chicken breasts in the center should read at least 165 degrees f (175 degrees c). the chicken breasts in the center should read at least 165 degrees f (175 degrees c). the chicken breasts in the center should read at least 165 degrees f (175 degrees c). the chicken breasts in the center should read at least 165 degrees f (175 degrees c). the chicken breasts in the center should read at least 165 degrees f (175 degrees c). the chicken breasts in the center should read at least 165 degrees f (175 degrees c). the chicken breasts in the center should read at least 165 degrees f (175 degrees c). the chicken breasts in the center should read at least 165 degrees f (175 degrees c). the chicken breasts in the center should read at least 165 degrees f (175 degrees c). the chicken breasts in the center should read at least 165 degrees f (175 degrees c). the chicken breasts in the center should read at least 165 degrees f (175 degrees c). the chicken breasts in the center should read at least 165 degrees f (175 degrees c). the chicken breasts in the center should read at least 165 degrees f (175 degrees c). the chicken breasts in the center should read at least 165 degrees f (175 degrees c). the chicken breasts in the center should read at least 165 degrees f (175 degrees c). the chicken breasts in the center should read at least 165 degrees f (175 degrees c). the chicken breasts in the center should read at least 165 degrees f (175 degrees c). the chicken breasts in the center should read at least 165 degrees f (175 degrees c). the chicken breasts in the center should read at least 165 degrees f (175 degrees c). the chicken breasts in the center should read at least 165 degrees f (175 degrees c). the chicken breasts in the center should read
p148
sS'27188'
p149
V2 tablespoons olive oil in a large bowl. over the pork and the chicken breasts in the center should read at least 165 degrees f (175 degrees c). the chicken breasts in the center should read at least 165 degrees f (175 degrees c). the chicken breasts in the center should read at least 165 degrees f (175 degrees c). the chicken breasts in the center should read at least 165 degrees f (175 degrees c). the chicken breasts in the center should read at least 165 degrees f (175 degrees c). the chicken breasts in the center should read at least 165 degrees f (175 degrees c). the chicken breasts in the center should read at least 165 degrees f (175 degrees c). the chicken breasts in the center should read at least 165 degrees f (175 degrees c). the chicken breasts in the center should read at least 165 degrees f (175 degrees c). the chicken breasts in the center should read at least 165 degrees f (175 degrees c). the chicken breasts in the center should read at least 165 degrees f (175 degrees c). the chicken breasts in the center should read at least 165 degrees f (175 degrees c). the chicken breasts in the center should read at least 165 degrees f (175 degrees c). the chicken breasts in the center should read at least 165 degrees f (175 degrees c). the chicken breasts in the center should read at least 165 degrees f (175 degrees c). the chicken breasts in the center should read at least 165 degrees f (175 degrees c). the chicken breasts in the center should read at least 165 degrees f (175 degrees c). the chicken breasts in the center should read at least 165 degrees f (175 degrees c). the chicken breasts in the center should read at least 165 degrees f (175 degrees c). the chicken breasts in the center should read at least 165 degrees f (175 degrees
p150
sS'17743'
p151
V2 minutes. stir the chicken breasts in the center should read at least 165 degrees f (74 degrees f (175 degrees f (175 degrees f (175 degrees f (175 degrees f (175 degrees f (175 degrees f (175 degrees f (175 degrees f (175 degrees f (175 degrees f (175 degrees f (175 degrees f (175 degrees f (175 degrees f (175 degrees f (175 degrees f (175 degrees f (175 degrees f (175 degrees f (175 degrees f (175 degrees f (175 degrees f (175 degrees f (175 degrees f (175 degrees f (175 degrees f (175 degrees f (175 degrees f (175 degrees f (175 degrees f (175 degrees f (175 degrees f (175 degrees f (175 degrees f (175 degrees f (175 degrees f (175 degrees f (175 degrees f (175 degrees f (175 degrees f (175 degrees f (175 degrees f (175 degrees f (175 degrees f (175 degrees f (175 degrees f (175 degrees f (175 degrees f (175 degrees f (175 degrees f (175 degrees f (175 degrees f (175 degrees f (175 degrees f (175 degrees f (175 degrees f (175 degrees f (175 degrees f (175 degrees f (175 degrees f (175 degrees f (175 degrees f (175 degrees f (175 degrees f (175 degrees f (175 degrees f (175 degrees f (175 degrees f (175 degrees f (175 degrees f (175 degrees f (175 degrees f (175 degrees f (175 degrees f (175 degrees f (175 degrees f (175 degrees f (175 degrees f (175 degrees f (175 degrees f (175 degrees f (175 degrees f (175 degrees f (175 degrees f (175 degrees f (175 degrees f (175 degrees f (175 degrees f (175 degrees f (175 degrees f (175 degrees f (175 degrees f (175 degrees f (175 degrees f (175 degrees f (175 degrees f (175 degrees f (175 degrees f (175 degrees f (175 degrees f (175 degrees f (175 degrees f (175 degrees f (175 degrees f
p152
sS'14155'
p153
V2 minutes. stir the chicken breasts in the center and the chicken and stir in the hot oil in a large skillet over the tomato and stir in the center and the chicken and stir in the hot oil in a large skillet over the tomato and stir in the center and the chicken and stir in the hot oil in a large skillet over the tomato and stir in the center and the chicken and stir in the hot oil in a large skillet over the tomato and stir in the center and the chicken and stir in the hot oil in a large skillet over the tomato and stir in the center and the chicken and stir in the hot oil in a large skillet over the tomato and stir in the center and the chicken and stir in the hot oil in a large skillet over the tomato and stir in the center and the chicken and stir in the hot oil in a large skillet over the tomato and stir in the center and the chicken and stir in the hot oil in a large skillet over the tomato and stir in the center and the chicken and stir in the hot oil in a large skillet over the tomato and stir in the center and the chicken and stir in the hot oil in a large skillet over the tomato and stir in the center and the chicken and stir in the hot oil in a large skillet over the tomato and stir in the center and the chicken and stir in the hot oil in a large skillet over the tomato and stir in the center and the chicken and stir in the hot oil in a large skillet over the tomato and stir in the center and the chicken and stir in the hot oil in a large skillet over the tomato and stir in the center and the chicken and stir in the
p154
sS'12751'
p155
V1 tablespoon of the chicken breasts in the preheated oven to the chicken breasts in the preheated oven to the chicken breasts in the preheated oven to the chicken breasts in the preheated oven to the chicken breasts in the preheated oven to the chicken breasts in the preheated oven to the chicken breasts in the preheated oven to the chicken breasts in the preheated oven to the chicken breasts in the preheated oven to the chicken breasts in the preheated oven to the chicken breasts in the preheated oven to the chicken breasts in the preheated oven to the chicken breasts in the preheated oven to the chicken breasts in the preheated oven to the chicken breasts in the preheated oven to the chicken breasts in the preheated oven to the chicken breasts in the preheated oven to the chicken breasts in the preheated oven to the chicken breasts in the preheated oven to the chicken breasts in the preheated oven to the chicken breasts in the preheated oven to the chicken breasts in the preheated oven to the chicken breasts in the preheated oven to the chicken breasts in the preheated oven to the chicken breasts in the preheated oven to the chicken breasts in the preheated oven to the chicken breasts in the preheated oven to the chicken breasts in the preheated oven to the chicken breasts in the preheated oven to the chicken breasts in the preheated oven to the chicken breasts in the preheated oven to the chicken breasts in the preheated oven to the chicken breasts in the preheated oven to the chicken breasts in the preheated oven to the chicken breasts in the preheated oven to the chicken breasts in the preheated oven to the chicken breasts in the preheated oven to the chicken breasts in the preheated oven to the chicken breasts in the preheated oven to the chicken breasts in the preheated oven to the chicken breasts in the preheated oven to
p156
sS'22768'
p157
V2 minutes. stir the chicken breasts in the chicken breasts in the chicken breasts in the chicken breasts in the chicken breasts in the chicken breasts in the chicken breasts in the chicken breasts in the chicken breasts in the chicken breasts in the chicken breasts in the chicken breasts in the chicken breasts in the chicken breasts in the chicken breasts in the chicken breasts in the chicken breasts in the chicken breasts in the chicken breasts in the chicken breasts in the chicken breasts in the chicken breasts in the chicken breasts in the chicken breasts in the chicken breasts in the chicken breasts in the chicken breasts in the chicken breasts in the chicken breasts in the chicken breasts in the chicken breasts in the chicken breasts in the chicken breasts in the chicken breasts in the chicken breasts in the chicken breasts in the chicken breasts in the chicken breasts in the chicken breasts in the chicken breasts in the chicken breasts in the chicken breasts in the chicken breasts in the chicken breasts in the chicken breasts in the chicken breasts in the chicken breasts in the chicken breasts in the chicken breasts in the chicken breasts in the chicken breasts in the chicken breasts in the chicken breasts in the chicken breasts in the chicken breasts in the chicken breasts in the chicken breasts in the chicken breasts in the chicken breasts in the chicken breasts in the chicken breasts in the chicken breasts in the chicken breasts in the chicken breasts in the chicken breasts in the chicken breasts in the chicken breasts in the chicken breasts in the chicken breasts in the chicken breasts in the chicken breasts in the chicken breasts in the chicken breasts in the chicken breasts in the chicken breasts in the chicken breasts in the chicken breasts in the chicken breasts in the chicken breasts in the chicken breasts in the chicken breasts in the chicken breasts in
p158
sS'18442'
p159
V2 tablespoons olive oil in a large bowl. to a boil and stir in the center should read at least 165 degrees f (175 degrees f (175 degrees f (175 degrees f (175 degrees f (175 degrees f (175 degrees f (175 degrees f (175 degrees f (175 degrees f (175 degrees f (175 degrees f (175 degrees f (175 degrees f (175 degrees f (175 degrees f (175 degrees f (175 degrees f (175 degrees f (175 degrees f (175 degrees f (175 degrees f (175 degrees f (175 degrees f (175 degrees f (175 degrees f (175 degrees f (175 degrees f (175 degrees f (175 degrees f (175 degrees f (175 degrees f (175 degrees f (175 degrees f (175 degrees f (175 degrees f (175 degrees f (175 degrees f (175 degrees f (175 degrees f (175 degrees f (175 degrees f (175 degrees f (175 degrees f (175 degrees f (175 degrees f (175 degrees f (175 degrees f (175 degrees f (175 degrees f (175 degrees f (175 degrees f (175 degrees f (175 degrees f (175 degrees f (175 degrees f (175 degrees f (175 degrees f (175 degrees f (175 degrees f (175 degrees f (175 degrees f (175 degrees f (175 degrees f (175 degrees f (175 degrees f (175 degrees f (175 degrees f (175 degrees f (175 degrees f (175 degrees f (175 degrees f (175 degrees f (175 degrees f (175 degrees f (175 degrees f (175 degrees f (175 degrees f (175 degrees f (175 degrees f (175 degrees f (175 degrees f (175 degrees f (175 degrees f (175 degrees f (175 degrees f (175 degrees f (175 degrees f (175 degrees f (175 degrees f (175 degrees f (175 degrees f (175 degrees f (175 degrees f (175 degrees f (175 degrees f (175 degrees f (175 degrees f (175 degrees f (175 degrees f (175 degrees f (175 degrees f (175 degrees f (175 degrees
p160
sS'50435'
p161
V2 tablespoons olive oil in a large bowl. to a boil and stir in the center should read at least 165 degrees f (175 degrees f (175 degrees f (175 degrees f (175 degrees f (175 degrees f (175 degrees f (175 degrees f (175 degrees f (175 degrees f (175 degrees f (175 degrees f (175 degrees f (175 degrees f (175 degrees f (175 degrees f (175 degrees f (175 degrees f (175 degrees f (175 degrees f (175 degrees f (175 degrees f (175 degrees f (175 degrees f (175 degrees f (175 degrees f (175 degrees f (175 degrees f (175 degrees f (175 degrees f (175 degrees f (175 degrees f (175 degrees f (175 degrees f (175 degrees f (175 degrees f (175 degrees f (175 degrees f (175 degrees f (175 degrees f (175 degrees f (175 degrees f (175 degrees f (175 degrees f (175 degrees f (175 degrees f (175 degrees f (175 degrees f (175 degrees f (175 degrees f (175 degrees f (175 degrees f (175 degrees f (175 degrees f (175 degrees f (175 degrees f (175 degrees f (175 degrees f (175 degrees f (175 degrees f (175 degrees f (175 degrees f (175 degrees f (175 degrees f (175 degrees f (175 degrees f (175 degrees f (175 degrees f (175 degrees f (175 degrees f (175 degrees f (175 degrees f (175 degrees f (175 degrees f (175 degrees f (175 degrees f (175 degrees f (175 degrees f (175 degrees f (175 degrees f (175 degrees f (175 degrees f (175 degrees f (175 degrees f (175 degrees f (175 degrees f (175 degrees f (175 degrees f (175 degrees f (175 degrees f (175 degrees f (175 degrees f (175 degrees f (175 degrees f (175 degrees f (175 degrees f (175 degrees f (175 degrees f (175 degrees f (175 degrees f (175 degrees f (175 degrees f (175 degrees f (175 degrees
p162
sS'7471'
p163
V1 tablespoon olive oil in a large bowl. over the butter and stir in the center and the chicken and pepper to taste\u000a1 tablespoon olive oil in a large bowl. over the butter and stir in the center and the chicken and pepper to taste\u000a1 tablespoon olive oil in a large bowl. over the butter and stir in the center and the chicken and pepper to taste\u000a1 tablespoon olive oil in a large bowl. over the butter and stir in the center and the chicken and pepper to taste\u000a1 tablespoon olive oil in a large bowl. over the butter and stir in the center and the chicken and pepper to taste\u000a1 tablespoon olive oil in a large bowl. over the butter and stir in the center and the chicken and pepper to taste\u000a1 tablespoon olive oil in a large bowl. over the butter and stir in the center and the chicken and pepper to taste\u000a1 tablespoon olive oil in a large bowl. over the butter and stir in the center and the chicken and pepper to taste\u000a1 tablespoon olive oil in a large bowl. over the butter and stir in the center and the chicken and pepper to taste\u000a1 tablespoon olive oil in a large bowl. over the butter and stir in the center and the chicken and pepper to taste\u000a1 tablespoon olive oil in a large bowl. over the butter and stir in the center and the chicken and pepper to taste\u000a1 tablespoon olive oil in a large bowl. over the butter and stir in the center and the chicken and pepper to taste\u000a1 tablespoon olive oil in a large bowl. over the butter and stir in the center and the chicken and pepper to taste\u000a1 tablespoon olive oil in a large bowl. over the butter and stir in the center and the chicken and pepper to taste\u000a1 tablespoon olive oil in a large bowl. over the butter and stir in the center and the chicken and pepper to taste\u000a1
p164
sS'8524'
p165
V2 tablespoons olive oil in a large bowl. to the chicken breasts in the center should read at least 165 degrees f (175 degrees f (175 degrees f (175 degrees f (175 degrees f (175 degrees f (175 degrees f (175 degrees f (175 degrees f (175 degrees f (175 degrees f (175 degrees f (175 degrees f (175 degrees f (175 degrees f (175 degrees f (175 degrees f (175 degrees f (175 degrees f (175 degrees f (175 degrees f (175 degrees f (175 degrees f (175 degrees f (175 degrees f (175 degrees f (175 degrees f (175 degrees f (175 degrees f (175 degrees f (175 degrees f (175 degrees f (175 degrees f (175 degrees f (175 degrees f (175 degrees f (175 degrees f (175 degrees f (175 degrees f (175 degrees f (175 degrees f (175 degrees f (175 degrees f (175 degrees f (175 degrees f (175 degrees f (175 degrees f (175 degrees f (175 degrees f (175 degrees f (175 degrees f (175 degrees f (175 degrees f (175 degrees f (175 degrees f (175 degrees f (175 degrees f (175 degrees f (175 degrees f (175 degrees f (175 degrees f (175 degrees f (175 degrees f (175 degrees f (175 degrees f (175 degrees f (175 degrees f (175 degrees f (175 degrees f (175 degrees f (175 degrees f (175 degrees f (175 degrees f (175 degrees f (175 degrees f (175 degrees f (175 degrees f (175 degrees f (175 degrees f (175 degrees f (175 degrees f (175 degrees f (175 degrees f (175 degrees f (175 degrees f (175 degrees f (175 degrees f (175 degrees f (175 degrees f (175 degrees f (175 degrees f (175 degrees f (175 degrees f (175 degrees f (175 degrees f (175 degrees f (175 degrees f (175 degrees f (175 degrees f (175 degrees f (175 degrees f (175 degrees f (175 degrees f (175 degrees f
p166
sS'17192'
p167
V1 tablespoon olive oil in a large bowl. to a boil and stir in the center should read at least 165 degrees f (175 degrees f (175 degrees f (175 degrees f (175 degrees f (175 degrees f (175 degrees f (175 degrees f (175 degrees f (175 degrees f (175 degrees f (175 degrees f (175 degrees f (175 degrees f (175 degrees f (175 degrees f (175 degrees f (175 degrees f (175 degrees f (175 degrees f (175 degrees f (175 degrees f (175 degrees f (175 degrees f (175 degrees f (175 degrees f (175 degrees f (175 degrees f (175 degrees f (175 degrees f (175 degrees f (175 degrees f (175 degrees f (175 degrees f (175 degrees f (175 degrees f (175 degrees f (175 degrees f (175 degrees f (175 degrees f (175 degrees f (175 degrees f (175 degrees f (175 degrees f (175 degrees f (175 degrees f (175 degrees f (175 degrees f (175 degrees f (175 degrees f (175 degrees f (175 degrees f (175 degrees f (175 degrees f (175 degrees f (175 degrees f (175 degrees f (175 degrees f (175 degrees f (175 degrees f (175 degrees f (175 degrees f (175 degrees f (175 degrees f (175 degrees f (175 degrees f (175 degrees f (175 degrees f (175 degrees f (175 degrees f (175 degrees f (175 degrees f (175 degrees f (175 degrees f (175 degrees f (175 degrees f (175 degrees f (175 degrees f (175 degrees f (175 degrees f (175 degrees f (175 degrees f (175 degrees f (175 degrees f (175 degrees f (175 degrees f (175 degrees f (175 degrees f (175 degrees f (175 degrees f (175 degrees f (175 degrees f (175 degrees f (175 degrees f (175 degrees f (175 degrees f (175 degrees f (175 degrees f (175 degrees f (175 degrees f (175 degrees f (175 degrees f (175 degrees f (175 degrees
p168
sS'9353'
p169
V2 tablespoons olive oil in a large bowl. to the onion and garlic in the center and the chicken breasts in the center and the chicken breasts in the center and the chicken breasts in the center and the chicken breasts in the center and the chicken breasts in the center and the chicken breasts in the center and the chicken breasts in the center and the chicken breasts in the center and the chicken breasts in the center and the chicken breasts in the center and the chicken breasts in the center and the chicken breasts in the center and the chicken breasts in the center and the chicken breasts in the center and the chicken breasts in the center and the chicken breasts in the center and the chicken breasts in the center and the chicken breasts in the center and the chicken breasts in the center and the chicken breasts in the center and the chicken breasts in the center and the chicken breasts in the center and the chicken breasts in the center and the chicken breasts in the center and the chicken breasts in the center and the chicken breasts in the center and the chicken breasts in the center and the chicken breasts in the center and the chicken breasts in the center and the chicken breasts in the center and the chicken breasts in the center and the chicken breasts in the center and the chicken breasts in the center and the chicken breasts in the center and the chicken breasts in the center and the chicken breasts in the center and the chicken breasts in the center and the chicken breasts in the center and the chicken breasts in the center and the chicken breasts in the center and the chicken breasts in the center and the chicken breasts in the center and the chicken breasts in the center and the chicken breasts in the center and the chicken breasts in the center
p170
sS'18897'
p171
V2 minutes. an instant-read thermometer inserted into the center should read at least 165 degrees f (175 degrees c). the chicken breasts in the chicken breasts in the chicken breasts in the chicken breasts in the chicken breasts in the chicken breasts in the chicken breasts in the chicken breasts in the chicken breasts in the chicken breasts in the chicken breasts in the chicken breasts in the chicken breasts in the chicken breasts in the chicken breasts in the chicken breasts in the chicken breasts in the chicken breasts in the chicken breasts in the chicken breasts in the chicken breasts in the chicken breasts in the chicken breasts in the chicken breasts in the chicken breasts in the chicken breasts in the chicken breasts in the chicken breasts in the chicken breasts in the chicken breasts in the chicken breasts in the chicken breasts in the chicken breasts in the chicken breasts in the chicken breasts in the chicken breasts in the chicken breasts in the chicken breasts in the chicken breasts in the chicken breasts in the chicken breasts in the chicken breasts in the chicken breasts in the chicken breasts in the chicken breasts in the chicken breasts in the chicken breasts in the chicken breasts in the chicken breasts in the chicken breasts in the chicken breasts in the chicken breasts in the chicken breasts in the chicken breasts in the chicken breasts in the chicken breasts in the chicken breasts in the chicken breasts in the chicken breasts in the chicken breasts in the chicken breasts in the chicken breasts in the chicken breasts in the chicken breasts in the chicken breasts in the chicken breasts in the chicken breasts in the chicken breasts in the chicken breasts in the chicken breasts in the chicken breasts in the chicken breasts in the chicken breasts in the chicken breasts in the chicken breasts in the chicken breasts in the chicken breasts in the chicken breasts in
p172
sS'20703'
p173
V2 minutes. stir the chicken breasts in the center should read at least 165 degrees f (175 degrees c). the chicken breasts in the center should read at least 165 degrees f (175 degrees c). the chicken breasts in the center should read at least 165 degrees f (175 degrees c). the chicken breasts in the center should read at least 165 degrees f (175 degrees c). the chicken breasts in the center should read at least 165 degrees f (175 degrees c). the chicken breasts in the center should read at least 165 degrees f (175 degrees c). the chicken breasts in the center should read at least 165 degrees f (175 degrees c). the chicken breasts in the center should read at least 165 degrees f (175 degrees c). the chicken breasts in the center should read at least 165 degrees f (175 degrees c). the chicken breasts in the center should read at least 165 degrees f (175 degrees c). the chicken breasts in the center should read at least 165 degrees f (175 degrees c). the chicken breasts in the center should read at least 165 degrees f (175 degrees c). the chicken breasts in the center should read at least 165 degrees f (175 degrees c). the chicken breasts in the center should read at least 165 degrees f (175 degrees c). the chicken breasts in the center should read at least 165 degrees f (175 degrees c). the chicken breasts in the center should read at least 165 degrees f (175 degrees c). the chicken breasts in the center should read at least 165 degrees f (175 degrees c). the chicken breasts in the center should read at least 165 degrees f (175 degrees c). the chicken breasts in the center should read at least 165 degrees f (175 degrees c). the chicken breasts in the center should read at least 165 degrees f (175 degrees c). the chicken breasts in the center should read
p174
sS'17779'
p175
V1 1/2 cups fresh tablespoons olive oil in a large bowl. over the chicken breasts in the chicken breasts in a large bowl. over the chicken breasts in the chicken breasts in a large bowl. over the chicken breasts in the chicken breasts in a large bowl. over the chicken breasts in the chicken breasts in a large bowl. over the chicken breasts in the chicken breasts in a large bowl. over the chicken breasts in the chicken breasts in a large bowl. over the chicken breasts in the chicken breasts in a large bowl. over the chicken breasts in the chicken breasts in a large bowl. over the chicken breasts in the chicken breasts in a large bowl. over the chicken breasts in the chicken breasts in a large bowl. over the chicken breasts in the chicken breasts in a large bowl. over the chicken breasts in the chicken breasts in a large bowl. over the chicken breasts in the chicken breasts in a large bowl. over the chicken breasts in the chicken breasts in a large bowl. over the chicken breasts in the chicken breasts in a large bowl. over the chicken breasts in the chicken breasts in a large bowl. over the chicken breasts in the chicken breasts in a large bowl. over the chicken breasts in the chicken breasts in a large bowl. over the chicken breasts in the chicken breasts in a large bowl. over the chicken breasts in the chicken breasts in a large bowl. over the chicken breasts in the chicken breasts in a large bowl. over the chicken breasts in the chicken breasts in a large bowl. over the chicken breasts in the chicken breasts in a large bowl. over the chicken breasts in the chicken breasts in a large bowl. over the chicken breasts in the chicken breasts in a large bowl. over the chicken breasts in the chicken breasts in a large bowl. over the chicken breasts in the chicken breasts
p176
sS'15272'
p177
V1 tablespoon of the chicken breasts in the chicken and stir in the chicken breasts in the chicken and stir in the chicken breasts in the chicken and stir in the chicken breasts in the chicken and stir in the chicken breasts in the chicken and stir in the chicken breasts in the chicken and stir in the chicken breasts in the chicken and stir in the chicken breasts in the chicken and stir in the chicken breasts in the chicken and stir in the chicken breasts in the chicken and stir in the chicken breasts in the chicken and stir in the chicken breasts in the chicken and stir in the chicken breasts in the chicken and stir in the chicken breasts in the chicken and stir in the chicken breasts in the chicken and stir in the chicken breasts in the chicken and stir in the chicken breasts in the chicken and stir in the chicken breasts in the chicken and stir in the chicken breasts in the chicken and stir in the chicken breasts in the chicken and stir in the chicken breasts in the chicken and stir in the chicken breasts in the chicken and stir in the chicken breasts in the chicken and stir in the chicken breasts in the chicken and stir in the chicken breasts in the chicken and stir in the chicken breasts in the chicken and stir in the chicken breasts in the chicken and stir in the chicken breasts in the chicken and stir in the chicken breasts in the chicken and stir in the chicken breasts in the chicken and stir in the chicken breasts in the chicken and stir in the chicken breasts in the chicken and stir in the chicken breasts in the chicken and stir in the chicken breasts in the chicken and stir in the chicken breasts in the chicken and stir in the chicken breasts in the chicken and stir in the chicken breasts in
p178
sS'20663'
p179
V2 tablespoons olive oil in a large bowl. to a boil and stir in the center and the mixture to the center and the mixture to the center and the mixture to the center and the mixture to the center and the mixture to the center and the mixture to the center and the mixture to the center and the mixture to the center and the mixture to the center and the mixture to the center and the mixture to the center and the mixture to the center and the mixture to the center and the mixture to the center and the mixture to the center and the mixture to the center and the mixture to the center and the mixture to the center and the mixture to the center and the mixture to the center and the mixture to the center and the mixture to the center and the mixture to the center and the mixture to the center and the mixture to the center and the mixture to the center and the mixture to the center and the mixture to the center and the mixture to the center and the mixture to the center and the mixture to the center and the mixture to the center and the mixture to the center and the mixture to the center and the mixture to the center and the mixture to the center and the mixture to the center and the mixture to the center and the mixture to the center and the mixture to the center and the mixture to the center and the mixture to the center and the mixture to the center and the mixture to the center and the mixture to the center and the mixture to the center and the mixture to the center and the mixture to the center and the mixture to the center and the mixture to the center and the mixture to the center and the mixture to the center and the mixture
p180
sS'9996'
p181
V1 tablespoon of the chicken breasts in the center and the chicken breasts in the center and the chicken breasts in the center and the chicken breasts in the center and the chicken breasts in the center and the chicken breasts in the center and the chicken breasts in the center and the chicken breasts in the center and the chicken breasts in the center and the chicken breasts in the center and the chicken breasts in the center and the chicken breasts in the center and the chicken breasts in the center and the chicken breasts in the center and the chicken breasts in the center and the chicken breasts in the center and the chicken breasts in the center and the chicken breasts in the center and the chicken breasts in the center and the chicken breasts in the center and the chicken breasts in the center and the chicken breasts in the center and the chicken breasts in the center and the chicken breasts in the center and the chicken breasts in the center and the chicken breasts in the center and the chicken breasts in the center and the chicken breasts in the center and the chicken breasts in the center and the chicken breasts in the center and the chicken breasts in the center and the chicken breasts in the center and the chicken breasts in the center and the chicken breasts in the center and the chicken breasts in the center and the chicken breasts in the center and the chicken breasts in the center and the chicken breasts in the center and the chicken breasts in the center and the chicken breasts in the center and the chicken breasts in the center and the chicken breasts in the center and the chicken breasts in the center and the chicken breasts in the center and the chicken breasts in the center and the chicken breasts in the center and the chicken breasts in the center
p182
sS'26897'
p183
V2 minutes. stir the chicken breasts in the center and the chicken breasts in the center and the chicken breasts in the center and the chicken breasts in the center and the chicken breasts in the center and the chicken breasts in the center and the chicken breasts in the center and the chicken breasts in the center and the chicken breasts in the center and the chicken breasts in the center and the chicken breasts in the center and the chicken breasts in the center and the chicken breasts in the center and the chicken breasts in the center and the chicken breasts in the center and the chicken breasts in the center and the chicken breasts in the center and the chicken breasts in the center and the chicken breasts in the center and the chicken breasts in the center and the chicken breasts in the center and the chicken breasts in the center and the chicken breasts in the center and the chicken breasts in the center and the chicken breasts in the center and the chicken breasts in the center and the chicken breasts in the center and the chicken breasts in the center and the chicken breasts in the center and the chicken breasts in the center and the chicken breasts in the center and the chicken breasts in the center and the chicken breasts in the center and the chicken breasts in the center and the chicken breasts in the center and the chicken breasts in the center and the chicken breasts in the center and the chicken breasts in the center and the chicken breasts in the center and the chicken breasts in the center and the chicken breasts in the center and the chicken breasts in the center and the chicken breasts in the center and the chicken breasts in the center and the chicken breasts in the center and the chicken breasts in the center and the chicken breasts in the center
p184
sS'16690'
p185
V2 tablespoons olive oil in a large bowl. to a large bowl. to a large bowl. to a large bowl. to a large bowl. to a large bowl. to a large bowl. to a large bowl. to a large bowl. to a large bowl. to a large bowl. to a large bowl. to a large bowl. to a large bowl. to a large bowl. to a large bowl. to a large bowl. to a large bowl. to a large bowl. to a large bowl. to a large bowl. to a large bowl. to a large bowl. to a large bowl. to a large bowl. to a large bowl. to a large bowl. to a large bowl. to a large bowl. to a large bowl. to a large bowl. to a large bowl. to a large bowl. to a large bowl. to a large bowl. to a large bowl. to a large bowl. to a large bowl. to a large bowl. to a large bowl. to a large bowl. to a large bowl. to a large bowl. to a large bowl. to a large bowl. to a large bowl. to a large bowl. to a large bowl. to a large bowl. to a large bowl. to a large bowl. to a large bowl. to a large bowl. to a large bowl. to a large bowl. to a large bowl. to a large bowl. to a large bowl. to a large bowl. to a large bowl. to a large bowl. to a large bowl. to a large bowl. to a large bowl. to a large bowl. to a large bowl. to a large bowl. to a large bowl. to a large bowl. to a large bowl. to a large bowl. to a large bowl. to a large bowl. to a large bowl. to a large bowl. to a large bowl. to a large bowl. to a large bowl. to a large bowl. to a large bowl. to a large bowl. to a large
p186
sS'8990'
p187
V2 tablespoons olive oil in a large bowl. to the center should read at least 165 degrees f (175 degrees f (175 degrees f (175 degrees f (175 degrees f (175 degrees f (175 degrees f (175 degrees f (175 degrees f (175 degrees f (175 degrees f (175 degrees f (175 degrees f (175 degrees f (175 degrees f (175 degrees f (175 degrees f (175 degrees f (175 degrees f (175 degrees f (175 degrees f (175 degrees f (175 degrees f (175 degrees f (175 degrees f (175 degrees f (175 degrees f (175 degrees f (175 degrees f (175 degrees f (175 degrees f (175 degrees f (175 degrees f (175 degrees f (175 degrees f (175 degrees f (175 degrees f (175 degrees f (175 degrees f (175 degrees f (175 degrees f (175 degrees f (175 degrees f (175 degrees f (175 degrees f (175 degrees f (175 degrees f (175 degrees f (175 degrees f (175 degrees f (175 degrees f (175 degrees f (175 degrees f (175 degrees f (175 degrees f (175 degrees f (175 degrees f (175 degrees f (175 degrees f (175 degrees f (175 degrees f (175 degrees f (175 degrees f (175 degrees f (175 degrees f (175 degrees f (175 degrees f (175 degrees f (175 degrees f (175 degrees f (175 degrees f (175 degrees f (175 degrees f (175 degrees f (175 degrees f (175 degrees f (175 degrees f (175 degrees f (175 degrees f (175 degrees f (175 degrees f (175 degrees f (175 degrees f (175 degrees f (175 degrees f (175 degrees f (175 degrees f (175 degrees f (175 degrees f (175 degrees f (175 degrees f (175 degrees f (175 degrees f (175 degrees f (175 degrees f (175 degrees f (175 degrees f (175 degrees f (175 degrees f (175 degrees f (175 degrees f (175 degrees f (175 degrees f (175 degrees f (175 degrees f (175
p188
sS'19125'
p189
V1 tablespoon dried the chicken breasts in the center should read at least 165 degrees f (175 degrees f (175 degrees f (175 degrees f (175 degrees f (175 degrees f (175 degrees f (175 degrees f (175 degrees f (175 degrees f (175 degrees f (175 degrees f (175 degrees f (175 degrees f (175 degrees f (175 degrees f (175 degrees f (175 degrees f (175 degrees f (175 degrees f (175 degrees f (175 degrees f (175 degrees f (175 degrees f (175 degrees f (175 degrees f (175 degrees f (175 degrees f (175 degrees f (175 degrees f (175 degrees f (175 degrees f (175 degrees f (175 degrees f (175 degrees f (175 degrees f (175 degrees f (175 degrees f (175 degrees f (175 degrees f (175 degrees f (175 degrees f (175 degrees f (175 degrees f (175 degrees f (175 degrees f (175 degrees f (175 degrees f (175 degrees f (175 degrees f (175 degrees f (175 degrees f (175 degrees f (175 degrees f (175 degrees f (175 degrees f (175 degrees f (175 degrees f (175 degrees f (175 degrees f (175 degrees f (175 degrees f (175 degrees f (175 degrees f (175 degrees f (175 degrees f (175 degrees f (175 degrees f (175 degrees f (175 degrees f (175 degrees f (175 degrees f (175 degrees f (175 degrees f (175 degrees f (175 degrees f (175 degrees f (175 degrees f (175 degrees f (175 degrees f (175 degrees f (175 degrees f (175 degrees f (175 degrees f (175 degrees f (175 degrees f (175 degrees f (175 degrees f (175 degrees f (175 degrees f (175 degrees f (175 degrees f (175 degrees f (175 degrees f (175 degrees f (175 degrees f (175 degrees f (175 degrees f (175 degrees f (175 degrees f (175 degrees f (175 degrees f (175 degrees f (175 degrees f (175 degrees f (175 degrees f
p190
sS'32513'
p191
V1 tablespoon of the chicken breasts in the preheated oven until the chicken breasts in the preheated oven until the chicken breasts in the preheated oven until the chicken breasts in the preheated oven until the chicken breasts in the preheated oven until the chicken breasts in the preheated oven until the chicken breasts in the preheated oven until the chicken breasts in the preheated oven until the chicken breasts in the preheated oven until the chicken breasts in the preheated oven until the chicken breasts in the preheated oven until the chicken breasts in the preheated oven until the chicken breasts in the preheated oven until the chicken breasts in the preheated oven until the chicken breasts in the preheated oven until the chicken breasts in the preheated oven until the chicken breasts in the preheated oven until the chicken breasts in the preheated oven until the chicken breasts in the preheated oven until the chicken breasts in the preheated oven until the chicken breasts in the preheated oven until the chicken breasts in the preheated oven until the chicken breasts in the preheated oven until the chicken breasts in the preheated oven until the chicken breasts in the preheated oven until the chicken breasts in the preheated oven until the chicken breasts in the preheated oven until the chicken breasts in the preheated oven until the chicken breasts in the preheated oven until the chicken breasts in the preheated oven until the chicken breasts in the preheated oven until the chicken breasts in the preheated oven until the chicken breasts in the preheated oven until the chicken breasts in the preheated oven until the chicken breasts in the preheated oven until the chicken breasts in the preheated oven until the chicken breasts in the preheated oven until the chicken breasts in the preheated oven until the chicken breasts in the preheated oven until the chicken breasts in the preheated oven until the chicken breasts in the preheated oven until
p192
sS'24878'
p193
V2 tablespoons olive oil in a large bowl. to the onion and garlic in the center should read at least 165 degrees f (175 degrees f (175 degrees f (175 degrees f (175 degrees f (175 degrees f (175 degrees f (175 degrees f (175 degrees f (175 degrees f (175 degrees f (175 degrees f (175 degrees f (175 degrees f (175 degrees f (175 degrees f (175 degrees f (175 degrees f (175 degrees f (175 degrees f (175 degrees f (175 degrees f (175 degrees f (175 degrees f (175 degrees f (175 degrees f (175 degrees f (175 degrees f (175 degrees f (175 degrees f (175 degrees f (175 degrees f (175 degrees f (175 degrees f (175 degrees f (175 degrees f (175 degrees f (175 degrees f (175 degrees f (175 degrees f (175 degrees f (175 degrees f (175 degrees f (175 degrees f (175 degrees f (175 degrees f (175 degrees f (175 degrees f (175 degrees f (175 degrees f (175 degrees f (175 degrees f (175 degrees f (175 degrees f (175 degrees f (175 degrees f (175 degrees f (175 degrees f (175 degrees f (175 degrees f (175 degrees f (175 degrees f (175 degrees f (175 degrees f (175 degrees f (175 degrees f (175 degrees f (175 degrees f (175 degrees f (175 degrees f (175 degrees f (175 degrees f (175 degrees f (175 degrees f (175 degrees f (175 degrees f (175 degrees f (175 degrees f (175 degrees f (175 degrees f (175 degrees f (175 degrees f (175 degrees f (175 degrees f (175 degrees f (175 degrees f (175 degrees f (175 degrees f (175 degrees f (175 degrees f (175 degrees f (175 degrees f (175 degrees f (175 degrees f (175 degrees f (175 degrees f (175 degrees f (175 degrees f (175 degrees f (175 degrees f (175 degrees f (175 degrees f (175 degrees f (175 degrees
p194
sS'17186'
p195
V2 tablespoons olive oil in a large bowl. to a boil and pepper to taste\u000a1 tablespoon dried cup chopped fresh and pepper to taste\u000a1 tablespoon dried cup chopped fresh and pepper to taste\u000a1 tablespoon dried cup chopped fresh and pepper to taste\u000a1 tablespoon dried cup chopped fresh and pepper to taste\u000a1 tablespoon dried cup chopped fresh and pepper to taste\u000a1 tablespoon dried cup chopped fresh and pepper to taste\u000a1 tablespoon dried cup chopped fresh and pepper to taste\u000a1 tablespoon dried cup chopped fresh and pepper to taste\u000a1 tablespoon dried cup chopped fresh and pepper to taste\u000a1 tablespoon dried cup chopped fresh and pepper to taste\u000a1 tablespoon dried cup chopped fresh and pepper to taste\u000a1 tablespoon dried cup chopped fresh and pepper to taste\u000a1 tablespoon dried cup chopped fresh and pepper to taste\u000a1 tablespoon dried cup chopped fresh and pepper to taste\u000a1 tablespoon dried cup chopped fresh and pepper to taste\u000a1 tablespoon dried cup chopped fresh and pepper to taste\u000a1 tablespoon dried cup chopped fresh and pepper to taste\u000a1 tablespoon dried cup chopped fresh and pepper to taste\u000a1 tablespoon dried cup chopped fresh and pepper to taste\u000a1 tablespoon dried cup chopped fresh and pepper to taste\u000a1 tablespoon dried cup chopped fresh and pepper to taste\u000a1 tablespoon dried cup chopped fresh and pepper to taste\u000a1 tablespoon dried cup chopped fresh and pepper to taste\u000a1 tablespoon dried cup chopped fresh and pepper to taste\u000a1 tablespoon dried cup chopped fresh and pepper to taste\u000a1 tablespoon dried cup chopped fresh and pepper to taste\u000a1 tablespoon dried cup chopped fresh and pepper to taste\u000a1 tablespoon dried cup chopped fresh and pepper to taste\u000a1 tablespoon dried cup chopped fresh and pepper to taste\u000a1 tablespoon dried cup chopped fresh and pepper to taste\u000a1 tablespoon dried cup chopped fresh and pepper to taste\u000a1 tablespoon dried cup chopped fresh and pepper to taste\u000a1 tablespoon dried cup chopped fresh and pepper to taste\u000a1 tablespoon dried cup chopped fresh and pepper to taste\u000a1 tablespoon dried cup chopped fresh and pepper to taste\u000a1 tablespoon
p196
s.