(dp0
S'17571'
p1
VReal French Crepes
p2
sS'20179'
p3
VHoney Multigrain Bread
p4
sS'20177'
p5
VTodd's Famous Blueberry Pancakes
p6
sS'14676'
p7
VZesty Porcupine Meatballs
p8
sS'8626'
p9
VYummy Honey Chicken Kabobs
p10
sS'26399'
p11
VCorn and Chicken Soup
p12
sS'21276'
p13
VCrab Cakes III
p14
sS'18015'
p15
VLighter Banana Muffins
p16
sS'15368'
p17
VDeviled Eggs I
p18
sS'11669'
p19
VGreek Pasta with Tomatoes and White Beans
p20
sS'16338'
p21
VCranberry Salad IV
p22
sS'33234'
p23
VCrostini with Mozzarella and Tomato
p24
sS'22180'
p25
VWaffles I
p26
sS'19402'
p27
VQuick and Easy Alfredo Sauce
p28
sS'16679'
p29
VGarlicky Appetizer Shrimp Scampi
p30
sS'33092'
p31
VStuffed French Toast II
p32
sS'18775'
p33
VAussie Chicken
p34
sS'15352'
p35
VSesame Chicken
p36
sS'14064'
p37
VEasy Guacamole
p38
sS'47822'
p39
VGrilled Lamb with Brown Sugar Glaze
p40
sS'16664'
p41
VSpinach Quiche
p42
sS'25285'
p43
VGreen Bean and Mushroom Medley
p44
sS'6907'
p45
VJiffy Cinnamon Rolls
p46
sS'26921'
p47
VReal Hummus
p48
sS'18870'
p49
VRoast Leg of Lamb with Rosemary
p50
sS'18873'
p51
VOne Skillet Corned Beef Hash
p52
sS'12398'
p53
VCrustless Cranberry Pie
p54
sS'16727'
p55
VSouthern Potato Salad
p56
sS'15023'
p57
VMondi's Super Simple Chicken
p58
sS'14196'
p59
VSweet and Tart Strawberry Salad
p60
sS'14518'
p61
VGrilled Chicken Quesadillas
p62
sS'10602'
p63
VNo Bake Chocolate Oat Bars
p64
sS'13022'
p65
VTortilla Soup II
p66
sS'16061'
p67
VZucchini Pancakes
p68
sS'12155'
p69
VCreamy Blueberry Pie
p70
sS'7883'
p71
VBanana Pudding Cake
p72
sS'25800'
p73
VBasic Gingersnap Cookies
p74
sS'15735'
p75
VFruited Curry Chicken Salad
p76
sS'21321'
p77
VGrilled Scampi
p78
sS'16719'
p79
VFrench Toast II
p80
sS'8350'
p81
VChantal's New York Cheesecake
p82
sS'12725'
p83
VGrilled Salmon II
p84
sS'24685'
p85
VBlue Cheese Burgers
p86
sS'31972'
p87
VPeking Duck
p88
sS'8722'
p89
VMexican Chicken I
p90
sS'32057'
p91
VStir-Fried Vegetables with Chicken or Pork
p92
sS'15720'
p93
VCinnamon-Roasted Almonds
p94
sS'14039'
p95
VSpinach Mushroom Quiche
p96
sS'9036'
p97
VBroccoli Chicken Roli
p98
sS'48156'
p99
VAli's Amazing Bruschetta
p100
sS'6925'
p101
VMonkey Bread V
p102
sS'15641'
p103
VGrilled Chicken with Herbs
p104
sS'7151'
p105
VBlueberry Orange Bread
p106
sS'44172'
p107
VAll Protein Meatloaf
p108
sS'24922'
p109
VHerb Biscuits
p110
sS'14786'
p111
VBacon Wrapped Barbeque Shrimp
p112
sS'15093'
p113
VGrandma's Lemon Meringue Pie
p114
sS'15861'
p115
VEasy and Delicious Blender Quiche
p116
sS'35361'
p117
VBacon, Potato and Cheese Tart
p118
sS'8509'
p119
VCrispy Herb Baked Chicken
p120
sS'27739'
p121
VKen's Spicy Curry Chicken
p122
sS'18280'
p123
VEarly Morning Oven Roasted New Potatoes
p124
sS'25794'
p125
VEasy Granola Bars
p126
sS'14316'
p127
VChicken Fiesta Salad
p128
sS'16421'
p129
VBruschetta with Roasted Sweet Red Peppers
p130
sS'21256'
p131
VCod with Italian Crumb Topping
p132
sS'12223'
p133
VPecan Pumpkin Pie I
p134
sS'15810'
p135
VCarrot Pineapple Cake I
p136
sS'15142'
p137
VAward Winning Peaches and Cream Pie
p138
sS'23735'
p139
VBuffalo Style Chicken Pizza
p140
sS'10275'
p141
VClassic Peanut Butter Cookies
p142
sS'46609'
p143
VGeorgian Green Beans
p144
sS'17108'
p145
VSimple Malaysian Fried Chicken
p146
sS'12816'
p147
VCioppino
p148
sS'27188'
p149
VCrepes
p150
sS'17743'
p151
VPizza On The Grill II
p152
sS'14155'
p153
VOwen's Mozzarella and Tomato Salad
p154
sS'12751'
p155
VCrab Stuffed Mushrooms
p156
sS'22768'
p157
VTangy Poppy Seed Fruit Salad
p158
sS'18442'
p159
VBob's Awesome Lasagna
p160
sS'50435'
p161
VFry Bread Tacos II
p162
sS'7471'
p163
VLady Baltimore Cake
p164
sS'8524'
p165
VChicken Breasts with Herb Basting Sauce
p166
sS'17192'
p167
VDeep Fried Dill Pickles
p168
sS'9353'
p169
VStrawberry Bread
p170
sS'18897'
p171
VCompany Couscous
p172
sS'20703'
p173
VBaked Brunch Omelet
p174
sS'17779'
p175
VMushroom Stuffed Chicken Rollups
p176
sS'15272'
p177
VGingerbread Cookies II
p178
sS'20663'
p179
VZucchini Apple Bread
p180
sS'9996'
p181
VChewy Peanut Butter Chocolate Chip Cookies
p182
sS'26897'
p183
VPear and Gorgonzola Cheese Pizza
p184
sS'16690'
p185
VRich Italian Sausage and Potato Soup
p186
sS'8990'
p187
VGourmet Chicken Pizza
p188
sS'19125'
p189
VChicken and Red Wine Sauce
p190
sS'32513'
p191
VBanana Fruit Smoothie
p192
sS'24878'
p193
VBBQ Chicken Pizza
p194
sS'17186'
p195
VPecan Chicken Breasts Stuffed with Cream Cheese and Broccoli
p196
s.